
seq_cst:     file format elf32-i386


Disassembly of section .init:

08048754 <_init>:
 8048754:	53                   	push   %ebx
 8048755:	83 ec 08             	sub    $0x8,%esp
 8048758:	e8 83 01 00 00       	call   80488e0 <__x86.get_pc_thunk.bx>
 804875d:	81 c3 a3 48 00 00    	add    $0x48a3,%ebx
 8048763:	8b 83 fc ff ff ff    	mov    -0x4(%ebx),%eax
 8048769:	85 c0                	test   %eax,%eax
 804876b:	74 05                	je     8048772 <_init+0x1e>
 804876d:	e8 1e 00 00 00       	call   8048790 <__gmon_start__@plt>
 8048772:	83 c4 08             	add    $0x8,%esp
 8048775:	5b                   	pop    %ebx
 8048776:	c3                   	ret    

Disassembly of section .plt:

08048780 <__gmon_start__@plt-0x10>:
 8048780:	ff 35 04 d0 04 08    	pushl  0x804d004
 8048786:	ff 25 08 d0 04 08    	jmp    *0x804d008
 804878c:	00 00                	add    %al,(%eax)
	...

08048790 <__gmon_start__@plt>:
 8048790:	ff 25 0c d0 04 08    	jmp    *0x804d00c
 8048796:	68 00 00 00 00       	push   $0x0
 804879b:	e9 e0 ff ff ff       	jmp    8048780 <_init+0x2c>

080487a0 <_ZdlPv@plt>:
 80487a0:	ff 25 10 d0 04 08    	jmp    *0x804d010
 80487a6:	68 08 00 00 00       	push   $0x8
 80487ab:	e9 d0 ff ff ff       	jmp    8048780 <_init+0x2c>

080487b0 <__cxa_rethrow@plt>:
 80487b0:	ff 25 14 d0 04 08    	jmp    *0x804d014
 80487b6:	68 10 00 00 00       	push   $0x10
 80487bb:	e9 c0 ff ff ff       	jmp    8048780 <_init+0x2c>

080487c0 <__libc_start_main@plt>:
 80487c0:	ff 25 18 d0 04 08    	jmp    *0x804d018
 80487c6:	68 18 00 00 00       	push   $0x18
 80487cb:	e9 b0 ff ff ff       	jmp    8048780 <_init+0x2c>

080487d0 <_ZNSt6thread15_M_start_threadESt10shared_ptrINS_10_Impl_baseEE@plt>:
 80487d0:	ff 25 1c d0 04 08    	jmp    *0x804d01c
 80487d6:	68 20 00 00 00       	push   $0x20
 80487db:	e9 a0 ff ff ff       	jmp    8048780 <_init+0x2c>

080487e0 <__assert_fail@plt>:
 80487e0:	ff 25 20 d0 04 08    	jmp    *0x804d020
 80487e6:	68 28 00 00 00       	push   $0x28
 80487eb:	e9 90 ff ff ff       	jmp    8048780 <_init+0x2c>

080487f0 <_ZNSt6thread4joinEv@plt>:
 80487f0:	ff 25 24 d0 04 08    	jmp    *0x804d024
 80487f6:	68 30 00 00 00       	push   $0x30
 80487fb:	e9 80 ff ff ff       	jmp    8048780 <_init+0x2c>

08048800 <_ZSt9terminatev@plt>:
 8048800:	ff 25 28 d0 04 08    	jmp    *0x804d028
 8048806:	68 38 00 00 00       	push   $0x38
 804880b:	e9 70 ff ff ff       	jmp    8048780 <_init+0x2c>

08048810 <pthread_equal@plt>:
 8048810:	ff 25 2c d0 04 08    	jmp    *0x804d02c
 8048816:	68 40 00 00 00       	push   $0x40
 804881b:	e9 60 ff ff ff       	jmp    8048780 <_init+0x2c>

08048820 <__cxa_pure_virtual@plt>:
 8048820:	ff 25 30 d0 04 08    	jmp    *0x804d030
 8048826:	68 48 00 00 00       	push   $0x48
 804882b:	e9 50 ff ff ff       	jmp    8048780 <_init+0x2c>

08048830 <_Znwj@plt>:
 8048830:	ff 25 34 d0 04 08    	jmp    *0x804d034
 8048836:	68 50 00 00 00       	push   $0x50
 804883b:	e9 40 ff ff ff       	jmp    8048780 <_init+0x2c>

08048840 <__cxa_end_catch@plt>:
 8048840:	ff 25 38 d0 04 08    	jmp    *0x804d038
 8048846:	68 58 00 00 00       	push   $0x58
 804884b:	e9 30 ff ff ff       	jmp    8048780 <_init+0x2c>

08048850 <_ZSt17__throw_bad_allocv@plt>:
 8048850:	ff 25 3c d0 04 08    	jmp    *0x804d03c
 8048856:	68 60 00 00 00       	push   $0x60
 804885b:	e9 20 ff ff ff       	jmp    8048780 <_init+0x2c>

08048860 <__cxa_begin_catch@plt>:
 8048860:	ff 25 40 d0 04 08    	jmp    *0x804d040
 8048866:	68 68 00 00 00       	push   $0x68
 804886b:	e9 10 ff ff ff       	jmp    8048780 <_init+0x2c>

08048870 <__pthread_key_create@plt>:
 8048870:	ff 25 44 d0 04 08    	jmp    *0x804d044
 8048876:	68 70 00 00 00       	push   $0x70
 804887b:	e9 00 ff ff ff       	jmp    8048780 <_init+0x2c>

08048880 <__gxx_personality_v0@plt>:
 8048880:	ff 25 48 d0 04 08    	jmp    *0x804d048
 8048886:	68 78 00 00 00       	push   $0x78
 804888b:	e9 f0 fe ff ff       	jmp    8048780 <_init+0x2c>

08048890 <_Unwind_Resume@plt>:
 8048890:	ff 25 4c d0 04 08    	jmp    *0x804d04c
 8048896:	68 80 00 00 00       	push   $0x80
 804889b:	e9 e0 fe ff ff       	jmp    8048780 <_init+0x2c>

080488a0 <strcmp@plt>:
 80488a0:	ff 25 50 d0 04 08    	jmp    *0x804d050
 80488a6:	68 88 00 00 00       	push   $0x88
 80488ab:	e9 d0 fe ff ff       	jmp    8048780 <_init+0x2c>

Disassembly of section .text:

080488b0 <_start>:
 80488b0:	31 ed                	xor    %ebp,%ebp
 80488b2:	5e                   	pop    %esi
 80488b3:	89 e1                	mov    %esp,%ecx
 80488b5:	83 e4 f0             	and    $0xfffffff0,%esp
 80488b8:	50                   	push   %eax
 80488b9:	54                   	push   %esp
 80488ba:	52                   	push   %edx
 80488bb:	68 20 9c 04 08       	push   $0x8049c20
 80488c0:	68 b0 9b 04 08       	push   $0x8049bb0
 80488c5:	51                   	push   %ecx
 80488c6:	56                   	push   %esi
 80488c7:	68 20 8b 04 08       	push   $0x8048b20
 80488cc:	e8 ef fe ff ff       	call   80487c0 <__libc_start_main@plt>
 80488d1:	f4                   	hlt    
 80488d2:	66 90                	xchg   %ax,%ax
 80488d4:	66 90                	xchg   %ax,%ax
 80488d6:	66 90                	xchg   %ax,%ax
 80488d8:	66 90                	xchg   %ax,%ax
 80488da:	66 90                	xchg   %ax,%ax
 80488dc:	66 90                	xchg   %ax,%ax
 80488de:	66 90                	xchg   %ax,%ax

080488e0 <__x86.get_pc_thunk.bx>:
 80488e0:	8b 1c 24             	mov    (%esp),%ebx
 80488e3:	c3                   	ret    
 80488e4:	66 90                	xchg   %ax,%ax
 80488e6:	66 90                	xchg   %ax,%ax
 80488e8:	66 90                	xchg   %ax,%ax
 80488ea:	66 90                	xchg   %ax,%ax
 80488ec:	66 90                	xchg   %ax,%ax
 80488ee:	66 90                	xchg   %ax,%ax

080488f0 <deregister_tm_clones>:
 80488f0:	b8 5f d0 04 08       	mov    $0x804d05f,%eax
 80488f5:	2d 5c d0 04 08       	sub    $0x804d05c,%eax
 80488fa:	83 f8 06             	cmp    $0x6,%eax
 80488fd:	77 01                	ja     8048900 <deregister_tm_clones+0x10>
 80488ff:	c3                   	ret    
 8048900:	b8 00 00 00 00       	mov    $0x0,%eax
 8048905:	85 c0                	test   %eax,%eax
 8048907:	74 f6                	je     80488ff <deregister_tm_clones+0xf>
 8048909:	55                   	push   %ebp
 804890a:	89 e5                	mov    %esp,%ebp
 804890c:	83 ec 18             	sub    $0x18,%esp
 804890f:	c7 04 24 5c d0 04 08 	movl   $0x804d05c,(%esp)
 8048916:	ff d0                	call   *%eax
 8048918:	c9                   	leave  
 8048919:	c3                   	ret    
 804891a:	8d b6 00 00 00 00    	lea    0x0(%esi),%esi

08048920 <register_tm_clones>:
 8048920:	b8 5c d0 04 08       	mov    $0x804d05c,%eax
 8048925:	2d 5c d0 04 08       	sub    $0x804d05c,%eax
 804892a:	c1 f8 02             	sar    $0x2,%eax
 804892d:	89 c2                	mov    %eax,%edx
 804892f:	c1 ea 1f             	shr    $0x1f,%edx
 8048932:	01 d0                	add    %edx,%eax
 8048934:	d1 f8                	sar    %eax
 8048936:	75 01                	jne    8048939 <register_tm_clones+0x19>
 8048938:	c3                   	ret    
 8048939:	ba 00 00 00 00       	mov    $0x0,%edx
 804893e:	85 d2                	test   %edx,%edx
 8048940:	74 f6                	je     8048938 <register_tm_clones+0x18>
 8048942:	55                   	push   %ebp
 8048943:	89 e5                	mov    %esp,%ebp
 8048945:	83 ec 18             	sub    $0x18,%esp
 8048948:	89 44 24 04          	mov    %eax,0x4(%esp)
 804894c:	c7 04 24 5c d0 04 08 	movl   $0x804d05c,(%esp)
 8048953:	ff d2                	call   *%edx
 8048955:	c9                   	leave  
 8048956:	c3                   	ret    
 8048957:	89 f6                	mov    %esi,%esi
 8048959:	8d bc 27 00 00 00 00 	lea    0x0(%edi,%eiz,1),%edi

08048960 <__do_global_dtors_aux>:
 8048960:	80 3d cc d0 04 08 00 	cmpb   $0x0,0x804d0cc
 8048967:	75 13                	jne    804897c <__do_global_dtors_aux+0x1c>
 8048969:	55                   	push   %ebp
 804896a:	89 e5                	mov    %esp,%ebp
 804896c:	83 ec 08             	sub    $0x8,%esp
 804896f:	e8 7c ff ff ff       	call   80488f0 <deregister_tm_clones>
 8048974:	c6 05 cc d0 04 08 01 	movb   $0x1,0x804d0cc
 804897b:	c9                   	leave  
 804897c:	f3 c3                	repz ret 
 804897e:	66 90                	xchg   %ax,%ax

08048980 <frame_dummy>:
 8048980:	a1 f8 ce 04 08       	mov    0x804cef8,%eax
 8048985:	85 c0                	test   %eax,%eax
 8048987:	74 1f                	je     80489a8 <frame_dummy+0x28>
 8048989:	b8 00 00 00 00       	mov    $0x0,%eax
 804898e:	85 c0                	test   %eax,%eax
 8048990:	74 16                	je     80489a8 <frame_dummy+0x28>
 8048992:	55                   	push   %ebp
 8048993:	89 e5                	mov    %esp,%ebp
 8048995:	83 ec 18             	sub    $0x18,%esp
 8048998:	c7 04 24 f8 ce 04 08 	movl   $0x804cef8,(%esp)
 804899f:	ff d0                	call   *%eax
 80489a1:	c9                   	leave  
 80489a2:	e9 79 ff ff ff       	jmp    8048920 <register_tm_clones>
 80489a7:	90                   	nop
 80489a8:	e9 73 ff ff ff       	jmp    8048920 <register_tm_clones>

080489ad <_ZL18__gthread_active_pv>:
 80489ad:	55                   	push   %ebp
 80489ae:	89 e5                	mov    %esp,%ebp
 80489b0:	b8 70 88 04 08       	mov    $0x8048870,%eax
 80489b5:	85 c0                	test   %eax,%eax
 80489b7:	0f 95 c0             	setne  %al
 80489ba:	0f b6 c0             	movzbl %al,%eax
 80489bd:	5d                   	pop    %ebp
 80489be:	c3                   	ret    

080489bf <_ZL15__gthread_equalmm>:
 80489bf:	55                   	push   %ebp
 80489c0:	89 e5                	mov    %esp,%ebp
 80489c2:	83 ec 18             	sub    $0x18,%esp
 80489c5:	8b 45 0c             	mov    0xc(%ebp),%eax
 80489c8:	89 44 24 04          	mov    %eax,0x4(%esp)
 80489cc:	8b 45 08             	mov    0x8(%ebp),%eax
 80489cf:	89 04 24             	mov    %eax,(%esp)
 80489d2:	e8 39 fe ff ff       	call   8048810 <pthread_equal@plt>
 80489d7:	c9                   	leave  
 80489d8:	c3                   	ret    

080489d9 <_ZN9__gnu_cxxL18__exchange_and_addEPVii>:
 80489d9:	55                   	push   %ebp
 80489da:	89 e5                	mov    %esp,%ebp
 80489dc:	8b 55 0c             	mov    0xc(%ebp),%edx
 80489df:	8b 45 08             	mov    0x8(%ebp),%eax
 80489e2:	f0 0f c1 10          	lock xadd %edx,(%eax)
 80489e6:	89 d0                	mov    %edx,%eax
 80489e8:	5d                   	pop    %ebp
 80489e9:	c3                   	ret    

080489ea <_ZN9__gnu_cxxL25__exchange_and_add_singleEPii>:
 80489ea:	55                   	push   %ebp
 80489eb:	89 e5                	mov    %esp,%ebp
 80489ed:	83 ec 10             	sub    $0x10,%esp
 80489f0:	8b 45 08             	mov    0x8(%ebp),%eax
 80489f3:	8b 00                	mov    (%eax),%eax
 80489f5:	89 45 fc             	mov    %eax,-0x4(%ebp)
 80489f8:	8b 45 08             	mov    0x8(%ebp),%eax
 80489fb:	8b 10                	mov    (%eax),%edx
 80489fd:	8b 45 0c             	mov    0xc(%ebp),%eax
 8048a00:	01 c2                	add    %eax,%edx
 8048a02:	8b 45 08             	mov    0x8(%ebp),%eax
 8048a05:	89 10                	mov    %edx,(%eax)
 8048a07:	8b 45 fc             	mov    -0x4(%ebp),%eax
 8048a0a:	c9                   	leave  
 8048a0b:	c3                   	ret    

08048a0c <_ZN9__gnu_cxxL27__exchange_and_add_dispatchEPii>:
 8048a0c:	55                   	push   %ebp
 8048a0d:	89 e5                	mov    %esp,%ebp
 8048a0f:	83 ec 08             	sub    $0x8,%esp
 8048a12:	e8 96 ff ff ff       	call   80489ad <_ZL18__gthread_active_pv>
 8048a17:	85 c0                	test   %eax,%eax
 8048a19:	0f 95 c0             	setne  %al
 8048a1c:	84 c0                	test   %al,%al
 8048a1e:	74 14                	je     8048a34 <_ZN9__gnu_cxxL27__exchange_and_add_dispatchEPii+0x28>
 8048a20:	8b 45 0c             	mov    0xc(%ebp),%eax
 8048a23:	89 44 24 04          	mov    %eax,0x4(%esp)
 8048a27:	8b 45 08             	mov    0x8(%ebp),%eax
 8048a2a:	89 04 24             	mov    %eax,(%esp)
 8048a2d:	e8 a7 ff ff ff       	call   80489d9 <_ZN9__gnu_cxxL18__exchange_and_addEPVii>
 8048a32:	eb 12                	jmp    8048a46 <_ZN9__gnu_cxxL27__exchange_and_add_dispatchEPii+0x3a>
 8048a34:	8b 45 0c             	mov    0xc(%ebp),%eax
 8048a37:	89 44 24 04          	mov    %eax,0x4(%esp)
 8048a3b:	8b 45 08             	mov    0x8(%ebp),%eax
 8048a3e:	89 04 24             	mov    %eax,(%esp)
 8048a41:	e8 a4 ff ff ff       	call   80489ea <_ZN9__gnu_cxxL25__exchange_and_add_singleEPii>
 8048a46:	c9                   	leave  
 8048a47:	c3                   	ret    

08048a48 <_Z7write_xv>:
 8048a48:	55                   	push   %ebp
 8048a49:	89 e5                	mov    %esp,%ebp
 8048a4b:	83 ec 18             	sub    $0x18,%esp
 8048a4e:	c7 44 24 08 00 00 00 	movl   $0x0,0x8(%esp)
 8048a55:	00 
 8048a56:	c7 44 24 04 01 00 00 	movl   $0x1,0x4(%esp)
 8048a5d:	00 
 8048a5e:	c7 04 24 d0 d0 04 08 	movl   $0x804d0d0,(%esp)
 8048a65:	e8 58 03 00 00       	call   8048dc2 <_ZNSt11atomic_bool5storeEbSt12memory_order>
 8048a6a:	c9                   	leave  
 8048a6b:	c3                   	ret    

08048a6c <_Z7write_yv>:
 8048a6c:	55                   	push   %ebp
 8048a6d:	89 e5                	mov    %esp,%ebp
 8048a6f:	83 ec 18             	sub    $0x18,%esp
 8048a72:	c7 44 24 08 00 00 00 	movl   $0x0,0x8(%esp)
 8048a79:	00 
 8048a7a:	c7 44 24 04 01 00 00 	movl   $0x1,0x4(%esp)
 8048a81:	00 
 8048a82:	c7 04 24 d1 d0 04 08 	movl   $0x804d0d1,(%esp)
 8048a89:	e8 34 03 00 00       	call   8048dc2 <_ZNSt11atomic_bool5storeEbSt12memory_order>
 8048a8e:	c9                   	leave  
 8048a8f:	c3                   	ret    

08048a90 <_Z13read_x_then_yv>:
 8048a90:	55                   	push   %ebp
 8048a91:	89 e5                	mov    %esp,%ebp
 8048a93:	83 ec 18             	sub    $0x18,%esp
 8048a96:	90                   	nop
 8048a97:	c7 44 24 04 00 00 00 	movl   $0x0,0x4(%esp)
 8048a9e:	00 
 8048a9f:	c7 04 24 d0 d0 04 08 	movl   $0x804d0d0,(%esp)
 8048aa6:	e8 3f 03 00 00       	call   8048dea <_ZNKSt11atomic_bool4loadESt12memory_order>
 8048aab:	83 f0 01             	xor    $0x1,%eax
 8048aae:	84 c0                	test   %al,%al
 8048ab0:	75 e5                	jne    8048a97 <_Z13read_x_then_yv+0x7>
 8048ab2:	c7 44 24 04 00 00 00 	movl   $0x0,0x4(%esp)
 8048ab9:	00 
 8048aba:	c7 04 24 d1 d0 04 08 	movl   $0x804d0d1,(%esp)
 8048ac1:	e8 24 03 00 00       	call   8048dea <_ZNKSt11atomic_bool4loadESt12memory_order>
 8048ac6:	84 c0                	test   %al,%al
 8048ac8:	74 0c                	je     8048ad6 <_Z13read_x_then_yv+0x46>
 8048aca:	c7 04 24 d4 d0 04 08 	movl   $0x804d0d4,(%esp)
 8048ad1:	e8 a4 03 00 00       	call   8048e7a <_ZNSt13__atomic_baseIiEppEv>
 8048ad6:	c9                   	leave  
 8048ad7:	c3                   	ret    

08048ad8 <_Z13read_y_then_xv>:
 8048ad8:	55                   	push   %ebp
 8048ad9:	89 e5                	mov    %esp,%ebp
 8048adb:	83 ec 18             	sub    $0x18,%esp
 8048ade:	90                   	nop
 8048adf:	c7 44 24 04 00 00 00 	movl   $0x0,0x4(%esp)
 8048ae6:	00 
 8048ae7:	c7 04 24 d1 d0 04 08 	movl   $0x804d0d1,(%esp)
 8048aee:	e8 f7 02 00 00       	call   8048dea <_ZNKSt11atomic_bool4loadESt12memory_order>
 8048af3:	83 f0 01             	xor    $0x1,%eax
 8048af6:	84 c0                	test   %al,%al
 8048af8:	75 e5                	jne    8048adf <_Z13read_y_then_xv+0x7>
 8048afa:	c7 44 24 04 00 00 00 	movl   $0x0,0x4(%esp)
 8048b01:	00 
 8048b02:	c7 04 24 d0 d0 04 08 	movl   $0x804d0d0,(%esp)
 8048b09:	e8 dc 02 00 00       	call   8048dea <_ZNKSt11atomic_bool4loadESt12memory_order>
 8048b0e:	84 c0                	test   %al,%al
 8048b10:	74 0c                	je     8048b1e <_Z13read_y_then_xv+0x46>
 8048b12:	c7 04 24 d4 d0 04 08 	movl   $0x804d0d4,(%esp)
 8048b19:	e8 5c 03 00 00       	call   8048e7a <_ZNSt13__atomic_baseIiEppEv>
 8048b1e:	c9                   	leave  
 8048b1f:	c3                   	ret    

08048b20 <main>:
 8048b20:	55                   	push   %ebp
 8048b21:	89 e5                	mov    %esp,%ebp
 8048b23:	53                   	push   %ebx
 8048b24:	83 e4 f0             	and    $0xfffffff0,%esp
 8048b27:	83 ec 20             	sub    $0x20,%esp
 8048b2a:	c7 44 24 04 48 8a 04 	movl   $0x8048a48,0x4(%esp)
 8048b31:	08 
 8048b32:	8d 44 24 10          	lea    0x10(%esp),%eax
 8048b36:	89 04 24             	mov    %eax,(%esp)
 8048b39:	e8 82 03 00 00       	call   8048ec0 <_ZNSt6threadC1IRFvvEIEEEOT_DpOT0_>
 8048b3e:	c7 44 24 04 6c 8a 04 	movl   $0x8048a6c,0x4(%esp)
 8048b45:	08 
 8048b46:	8d 44 24 14          	lea    0x14(%esp),%eax
 8048b4a:	89 04 24             	mov    %eax,(%esp)
 8048b4d:	e8 6e 03 00 00       	call   8048ec0 <_ZNSt6threadC1IRFvvEIEEEOT_DpOT0_>
 8048b52:	c7 44 24 04 90 8a 04 	movl   $0x8048a90,0x4(%esp)
 8048b59:	08 
 8048b5a:	8d 44 24 18          	lea    0x18(%esp),%eax
 8048b5e:	89 04 24             	mov    %eax,(%esp)
 8048b61:	e8 5a 03 00 00       	call   8048ec0 <_ZNSt6threadC1IRFvvEIEEEOT_DpOT0_>
 8048b66:	c7 44 24 04 d8 8a 04 	movl   $0x8048ad8,0x4(%esp)
 8048b6d:	08 
 8048b6e:	8d 44 24 1c          	lea    0x1c(%esp),%eax
 8048b72:	89 04 24             	mov    %eax,(%esp)
 8048b75:	e8 46 03 00 00       	call   8048ec0 <_ZNSt6threadC1IRFvvEIEEEOT_DpOT0_>
 8048b7a:	8d 44 24 10          	lea    0x10(%esp),%eax
 8048b7e:	89 04 24             	mov    %eax,(%esp)
 8048b81:	e8 6a fc ff ff       	call   80487f0 <_ZNSt6thread4joinEv@plt>
 8048b86:	8d 44 24 14          	lea    0x14(%esp),%eax
 8048b8a:	89 04 24             	mov    %eax,(%esp)
 8048b8d:	e8 5e fc ff ff       	call   80487f0 <_ZNSt6thread4joinEv@plt>
 8048b92:	8d 44 24 18          	lea    0x18(%esp),%eax
 8048b96:	89 04 24             	mov    %eax,(%esp)
 8048b99:	e8 52 fc ff ff       	call   80487f0 <_ZNSt6thread4joinEv@plt>
 8048b9e:	8d 44 24 1c          	lea    0x1c(%esp),%eax
 8048ba2:	89 04 24             	mov    %eax,(%esp)
 8048ba5:	e8 46 fc ff ff       	call   80487f0 <_ZNSt6thread4joinEv@plt>
 8048baa:	c7 44 24 04 05 00 00 	movl   $0x5,0x4(%esp)
 8048bb1:	00 
 8048bb2:	c7 04 24 d4 d0 04 08 	movl   $0x804d0d4,(%esp)
 8048bb9:	e8 b0 03 00 00       	call   8048f6e <_ZNKSt13__atomic_baseIiE4loadESt12memory_order>
 8048bbe:	85 c0                	test   %eax,%eax
 8048bc0:	75 24                	jne    8048be6 <main+0xc6>
 8048bc2:	c7 44 24 0c 6c 9c 04 	movl   $0x8049c6c,0xc(%esp)
 8048bc9:	08 
 8048bca:	c7 44 24 08 2c 00 00 	movl   $0x2c,0x8(%esp)
 8048bd1:	00 
 8048bd2:	c7 44 24 04 4b 9c 04 	movl   $0x8049c4b,0x4(%esp)
 8048bd9:	08 
 8048bda:	c7 04 24 57 9c 04 08 	movl   $0x8049c57,(%esp)
 8048be1:	e8 fa fb ff ff       	call   80487e0 <__assert_fail@plt>
 8048be6:	8d 44 24 1c          	lea    0x1c(%esp),%eax
 8048bea:	89 04 24             	mov    %eax,(%esp)
 8048bed:	e8 00 01 00 00       	call   8048cf2 <_ZNSt6threadD1Ev>
 8048bf2:	8d 44 24 18          	lea    0x18(%esp),%eax
 8048bf6:	89 04 24             	mov    %eax,(%esp)
 8048bf9:	e8 f4 00 00 00       	call   8048cf2 <_ZNSt6threadD1Ev>
 8048bfe:	8d 44 24 14          	lea    0x14(%esp),%eax
 8048c02:	89 04 24             	mov    %eax,(%esp)
 8048c05:	e8 e8 00 00 00       	call   8048cf2 <_ZNSt6threadD1Ev>
 8048c0a:	8d 44 24 10          	lea    0x10(%esp),%eax
 8048c0e:	89 04 24             	mov    %eax,(%esp)
 8048c11:	e8 dc 00 00 00       	call   8048cf2 <_ZNSt6threadD1Ev>
 8048c16:	b8 00 00 00 00       	mov    $0x0,%eax
 8048c1b:	eb 48                	jmp    8048c65 <main+0x145>
 8048c1d:	89 c3                	mov    %eax,%ebx
 8048c1f:	8d 44 24 1c          	lea    0x1c(%esp),%eax
 8048c23:	89 04 24             	mov    %eax,(%esp)
 8048c26:	e8 c7 00 00 00       	call   8048cf2 <_ZNSt6threadD1Ev>
 8048c2b:	eb 02                	jmp    8048c2f <main+0x10f>
 8048c2d:	89 c3                	mov    %eax,%ebx
 8048c2f:	8d 44 24 18          	lea    0x18(%esp),%eax
 8048c33:	89 04 24             	mov    %eax,(%esp)
 8048c36:	e8 b7 00 00 00       	call   8048cf2 <_ZNSt6threadD1Ev>
 8048c3b:	eb 02                	jmp    8048c3f <main+0x11f>
 8048c3d:	89 c3                	mov    %eax,%ebx
 8048c3f:	8d 44 24 14          	lea    0x14(%esp),%eax
 8048c43:	89 04 24             	mov    %eax,(%esp)
 8048c46:	e8 a7 00 00 00       	call   8048cf2 <_ZNSt6threadD1Ev>
 8048c4b:	eb 02                	jmp    8048c4f <main+0x12f>
 8048c4d:	89 c3                	mov    %eax,%ebx
 8048c4f:	8d 44 24 10          	lea    0x10(%esp),%eax
 8048c53:	89 04 24             	mov    %eax,(%esp)
 8048c56:	e8 97 00 00 00       	call   8048cf2 <_ZNSt6threadD1Ev>
 8048c5b:	89 d8                	mov    %ebx,%eax
 8048c5d:	89 04 24             	mov    %eax,(%esp)
 8048c60:	e8 2b fc ff ff       	call   8048890 <_Unwind_Resume@plt>
 8048c65:	8b 5d fc             	mov    -0x4(%ebp),%ebx
 8048c68:	c9                   	leave  
 8048c69:	c3                   	ret    

08048c6a <_ZNKSt9type_infoeqERKS_>:
 8048c6a:	55                   	push   %ebp
 8048c6b:	89 e5                	mov    %esp,%ebp
 8048c6d:	83 ec 18             	sub    $0x18,%esp
 8048c70:	8b 45 08             	mov    0x8(%ebp),%eax
 8048c73:	8b 50 04             	mov    0x4(%eax),%edx
 8048c76:	8b 45 0c             	mov    0xc(%ebp),%eax
 8048c79:	8b 40 04             	mov    0x4(%eax),%eax
 8048c7c:	39 c2                	cmp    %eax,%edx
 8048c7e:	74 29                	je     8048ca9 <_ZNKSt9type_infoeqERKS_+0x3f>
 8048c80:	8b 45 08             	mov    0x8(%ebp),%eax
 8048c83:	8b 40 04             	mov    0x4(%eax),%eax
 8048c86:	0f b6 00             	movzbl (%eax),%eax
 8048c89:	3c 2a                	cmp    $0x2a,%al
 8048c8b:	74 23                	je     8048cb0 <_ZNKSt9type_infoeqERKS_+0x46>
 8048c8d:	8b 45 0c             	mov    0xc(%ebp),%eax
 8048c90:	8b 50 04             	mov    0x4(%eax),%edx
 8048c93:	8b 45 08             	mov    0x8(%ebp),%eax
 8048c96:	8b 40 04             	mov    0x4(%eax),%eax
 8048c99:	89 54 24 04          	mov    %edx,0x4(%esp)
 8048c9d:	89 04 24             	mov    %eax,(%esp)
 8048ca0:	e8 fb fb ff ff       	call   80488a0 <strcmp@plt>
 8048ca5:	85 c0                	test   %eax,%eax
 8048ca7:	75 07                	jne    8048cb0 <_ZNKSt9type_infoeqERKS_+0x46>
 8048ca9:	b8 01 00 00 00       	mov    $0x1,%eax
 8048cae:	eb 05                	jmp    8048cb5 <_ZNKSt9type_infoeqERKS_+0x4b>
 8048cb0:	b8 00 00 00 00       	mov    $0x0,%eax
 8048cb5:	c9                   	leave  
 8048cb6:	c3                   	ret    

08048cb7 <_ZnwjPv>:
 8048cb7:	55                   	push   %ebp
 8048cb8:	89 e5                	mov    %esp,%ebp
 8048cba:	8b 45 0c             	mov    0xc(%ebp),%eax
 8048cbd:	5d                   	pop    %ebp
 8048cbe:	c3                   	ret    

08048cbf <_ZdlPvS_>:
 8048cbf:	55                   	push   %ebp
 8048cc0:	89 e5                	mov    %esp,%ebp
 8048cc2:	5d                   	pop    %ebp
 8048cc3:	c3                   	ret    

08048cc4 <_ZNSt6thread2idC1Ev>:
 8048cc4:	55                   	push   %ebp
 8048cc5:	89 e5                	mov    %esp,%ebp
 8048cc7:	8b 45 08             	mov    0x8(%ebp),%eax
 8048cca:	c7 00 00 00 00 00    	movl   $0x0,(%eax)
 8048cd0:	5d                   	pop    %ebp
 8048cd1:	c3                   	ret    

08048cd2 <_ZSteqNSt6thread2idES0_>:
 8048cd2:	55                   	push   %ebp
 8048cd3:	89 e5                	mov    %esp,%ebp
 8048cd5:	83 ec 18             	sub    $0x18,%esp
 8048cd8:	8b 55 0c             	mov    0xc(%ebp),%edx
 8048cdb:	8b 45 08             	mov    0x8(%ebp),%eax
 8048cde:	89 54 24 04          	mov    %edx,0x4(%esp)
 8048ce2:	89 04 24             	mov    %eax,(%esp)
 8048ce5:	e8 d5 fc ff ff       	call   80489bf <_ZL15__gthread_equalmm>
 8048cea:	85 c0                	test   %eax,%eax
 8048cec:	0f 95 c0             	setne  %al
 8048cef:	c9                   	leave  
 8048cf0:	c3                   	ret    
 8048cf1:	90                   	nop

08048cf2 <_ZNSt6threadD1Ev>:
 8048cf2:	55                   	push   %ebp
 8048cf3:	89 e5                	mov    %esp,%ebp
 8048cf5:	83 ec 18             	sub    $0x18,%esp
 8048cf8:	8b 45 08             	mov    0x8(%ebp),%eax
 8048cfb:	89 04 24             	mov    %eax,(%esp)
 8048cfe:	e8 0b 00 00 00       	call   8048d0e <_ZNKSt6thread8joinableEv>
 8048d03:	84 c0                	test   %al,%al
 8048d05:	74 05                	je     8048d0c <_ZNSt6threadD1Ev+0x1a>
 8048d07:	e8 f4 fa ff ff       	call   8048800 <_ZSt9terminatev@plt>
 8048d0c:	c9                   	leave  
 8048d0d:	c3                   	ret    

08048d0e <_ZNKSt6thread8joinableEv>:
 8048d0e:	55                   	push   %ebp
 8048d0f:	89 e5                	mov    %esp,%ebp
 8048d11:	83 ec 28             	sub    $0x28,%esp
 8048d14:	8d 45 f4             	lea    -0xc(%ebp),%eax
 8048d17:	89 04 24             	mov    %eax,(%esp)
 8048d1a:	e8 a5 ff ff ff       	call   8048cc4 <_ZNSt6thread2idC1Ev>
 8048d1f:	8b 45 f4             	mov    -0xc(%ebp),%eax
 8048d22:	89 44 24 04          	mov    %eax,0x4(%esp)
 8048d26:	8b 45 08             	mov    0x8(%ebp),%eax
 8048d29:	8b 00                	mov    (%eax),%eax
 8048d2b:	89 04 24             	mov    %eax,(%esp)
 8048d2e:	e8 9f ff ff ff       	call   8048cd2 <_ZSteqNSt6thread2idES0_>
 8048d33:	83 f0 01             	xor    $0x1,%eax
 8048d36:	c9                   	leave  
 8048d37:	c3                   	ret    

08048d38 <_ZNSt12__shared_ptrINSt6thread10_Impl_baseELN9__gnu_cxx12_Lock_policyE2EED1Ev>:
 8048d38:	55                   	push   %ebp
 8048d39:	89 e5                	mov    %esp,%ebp
 8048d3b:	83 ec 18             	sub    $0x18,%esp
 8048d3e:	8b 45 08             	mov    0x8(%ebp),%eax
 8048d41:	83 c0 04             	add    $0x4,%eax
 8048d44:	89 04 24             	mov    %eax,(%esp)
 8048d47:	e8 b8 00 00 00       	call   8048e04 <_ZNSt14__shared_countILN9__gnu_cxx12_Lock_policyE2EED1Ev>
 8048d4c:	c9                   	leave  
 8048d4d:	c3                   	ret    

08048d4e <_ZNSt10shared_ptrINSt6thread10_Impl_baseEED1Ev>:
 8048d4e:	55                   	push   %ebp
 8048d4f:	89 e5                	mov    %esp,%ebp
 8048d51:	83 ec 18             	sub    $0x18,%esp
 8048d54:	8b 45 08             	mov    0x8(%ebp),%eax
 8048d57:	89 04 24             	mov    %eax,(%esp)
 8048d5a:	e8 d9 ff ff ff       	call   8048d38 <_ZNSt12__shared_ptrINSt6thread10_Impl_baseELN9__gnu_cxx12_Lock_policyE2EED1Ev>
 8048d5f:	c9                   	leave  
 8048d60:	c3                   	ret    
 8048d61:	90                   	nop

08048d62 <_ZNSt6thread10_Impl_baseD1Ev>:
 8048d62:	55                   	push   %ebp
 8048d63:	89 e5                	mov    %esp,%ebp
 8048d65:	83 ec 18             	sub    $0x18,%esp
 8048d68:	8b 45 08             	mov    0x8(%ebp),%eax
 8048d6b:	c7 00 c0 9c 04 08    	movl   $0x8049cc0,(%eax)
 8048d71:	8b 45 08             	mov    0x8(%ebp),%eax
 8048d74:	83 c0 04             	add    $0x4,%eax
 8048d77:	89 04 24             	mov    %eax,(%esp)
 8048d7a:	e8 cf ff ff ff       	call   8048d4e <_ZNSt10shared_ptrINSt6thread10_Impl_baseEED1Ev>
 8048d7f:	b8 00 00 00 00       	mov    $0x0,%eax
 8048d84:	85 c0                	test   %eax,%eax
 8048d86:	74 0b                	je     8048d93 <_ZNSt6thread10_Impl_baseD1Ev+0x31>
 8048d88:	8b 45 08             	mov    0x8(%ebp),%eax
 8048d8b:	89 04 24             	mov    %eax,(%esp)
 8048d8e:	e8 0d fa ff ff       	call   80487a0 <_ZdlPv@plt>
 8048d93:	c9                   	leave  
 8048d94:	c3                   	ret    
 8048d95:	90                   	nop

08048d96 <_ZNSt6thread10_Impl_baseD0Ev>:
 8048d96:	55                   	push   %ebp
 8048d97:	89 e5                	mov    %esp,%ebp
 8048d99:	83 ec 18             	sub    $0x18,%esp
 8048d9c:	8b 45 08             	mov    0x8(%ebp),%eax
 8048d9f:	89 04 24             	mov    %eax,(%esp)
 8048da2:	e8 bb ff ff ff       	call   8048d62 <_ZNSt6thread10_Impl_baseD1Ev>
 8048da7:	8b 45 08             	mov    0x8(%ebp),%eax
 8048daa:	89 04 24             	mov    %eax,(%esp)
 8048dad:	e8 ee f9 ff ff       	call   80487a0 <_ZdlPv@plt>
 8048db2:	c9                   	leave  
 8048db3:	c3                   	ret    

08048db4 <_ZStanSt12memory_orderSt23__memory_order_modifier>:
 8048db4:	55                   	push   %ebp
 8048db5:	89 e5                	mov    %esp,%ebp
 8048db7:	8b 55 08             	mov    0x8(%ebp),%edx
 8048dba:	8b 45 0c             	mov    0xc(%ebp),%eax
 8048dbd:	21 d0                	and    %edx,%eax
 8048dbf:	5d                   	pop    %ebp
 8048dc0:	c3                   	ret    
 8048dc1:	90                   	nop

08048dc2 <_ZNSt11atomic_bool5storeEbSt12memory_order>:
 8048dc2:	55                   	push   %ebp
 8048dc3:	89 e5                	mov    %esp,%ebp
 8048dc5:	83 ec 18             	sub    $0x18,%esp
 8048dc8:	8b 45 0c             	mov    0xc(%ebp),%eax
 8048dcb:	88 45 f4             	mov    %al,-0xc(%ebp)
 8048dce:	0f b6 55 f4          	movzbl -0xc(%ebp),%edx
 8048dd2:	8b 45 08             	mov    0x8(%ebp),%eax
 8048dd5:	8b 4d 10             	mov    0x10(%ebp),%ecx
 8048dd8:	89 4c 24 08          	mov    %ecx,0x8(%esp)
 8048ddc:	89 54 24 04          	mov    %edx,0x4(%esp)
 8048de0:	89 04 24             	mov    %eax,(%esp)
 8048de3:	e8 64 00 00 00       	call   8048e4c <_ZNSt13__atomic_baseIbE5storeEbSt12memory_order>
 8048de8:	c9                   	leave  
 8048de9:	c3                   	ret    

08048dea <_ZNKSt11atomic_bool4loadESt12memory_order>:
 8048dea:	55                   	push   %ebp
 8048deb:	89 e5                	mov    %esp,%ebp
 8048ded:	83 ec 18             	sub    $0x18,%esp
 8048df0:	8b 45 08             	mov    0x8(%ebp),%eax
 8048df3:	8b 55 0c             	mov    0xc(%ebp),%edx
 8048df6:	89 54 24 04          	mov    %edx,0x4(%esp)
 8048dfa:	89 04 24             	mov    %eax,(%esp)
 8048dfd:	e8 20 00 00 00       	call   8048e22 <_ZNKSt13__atomic_baseIbE4loadESt12memory_order>
 8048e02:	c9                   	leave  
 8048e03:	c3                   	ret    

08048e04 <_ZNSt14__shared_countILN9__gnu_cxx12_Lock_policyE2EED1Ev>:
 8048e04:	55                   	push   %ebp
 8048e05:	89 e5                	mov    %esp,%ebp
 8048e07:	83 ec 18             	sub    $0x18,%esp
 8048e0a:	8b 45 08             	mov    0x8(%ebp),%eax
 8048e0d:	8b 00                	mov    (%eax),%eax
 8048e0f:	85 c0                	test   %eax,%eax
 8048e11:	74 0d                	je     8048e20 <_ZNSt14__shared_countILN9__gnu_cxx12_Lock_policyE2EED1Ev+0x1c>
 8048e13:	8b 45 08             	mov    0x8(%ebp),%eax
 8048e16:	8b 00                	mov    (%eax),%eax
 8048e18:	89 04 24             	mov    %eax,(%esp)
 8048e1b:	e8 72 01 00 00       	call   8048f92 <_ZNSt16_Sp_counted_baseILN9__gnu_cxx12_Lock_policyE2EE10_M_releaseEv>
 8048e20:	c9                   	leave  
 8048e21:	c3                   	ret    

08048e22 <_ZNKSt13__atomic_baseIbE4loadESt12memory_order>:
 8048e22:	55                   	push   %ebp
 8048e23:	89 e5                	mov    %esp,%ebp
 8048e25:	83 ec 28             	sub    $0x28,%esp
 8048e28:	c7 44 24 04 ff ff 00 	movl   $0xffff,0x4(%esp)
 8048e2f:	00 
 8048e30:	8b 45 0c             	mov    0xc(%ebp),%eax
 8048e33:	89 04 24             	mov    %eax,(%esp)
 8048e36:	e8 79 ff ff ff       	call   8048db4 <_ZStanSt12memory_orderSt23__memory_order_modifier>
 8048e3b:	89 45 f4             	mov    %eax,-0xc(%ebp)
 8048e3e:	8b 45 08             	mov    0x8(%ebp),%eax
 8048e41:	0f b6 00             	movzbl (%eax),%eax
 8048e44:	84 c0                	test   %al,%al
 8048e46:	0f 95 c0             	setne  %al
 8048e49:	c9                   	leave  
 8048e4a:	c3                   	ret    
 8048e4b:	90                   	nop

08048e4c <_ZNSt13__atomic_baseIbE5storeEbSt12memory_order>:
 8048e4c:	55                   	push   %ebp
 8048e4d:	89 e5                	mov    %esp,%ebp
 8048e4f:	83 ec 28             	sub    $0x28,%esp
 8048e52:	8b 45 0c             	mov    0xc(%ebp),%eax
 8048e55:	88 45 e4             	mov    %al,-0x1c(%ebp)
 8048e58:	c7 44 24 04 ff ff 00 	movl   $0xffff,0x4(%esp)
 8048e5f:	00 
 8048e60:	8b 45 10             	mov    0x10(%ebp),%eax
 8048e63:	89 04 24             	mov    %eax,(%esp)
 8048e66:	e8 49 ff ff ff       	call   8048db4 <_ZStanSt12memory_orderSt23__memory_order_modifier>
 8048e6b:	89 45 f4             	mov    %eax,-0xc(%ebp)
 8048e6e:	0f b6 55 e4          	movzbl -0x1c(%ebp),%edx
 8048e72:	8b 45 08             	mov    0x8(%ebp),%eax
 8048e75:	86 10                	xchg   %dl,(%eax)
 8048e77:	c9                   	leave  
 8048e78:	c3                   	ret    
 8048e79:	90                   	nop

08048e7a <_ZNSt13__atomic_baseIiEppEv>:
 8048e7a:	55                   	push   %ebp
 8048e7b:	89 e5                	mov    %esp,%ebp
 8048e7d:	8b 55 08             	mov    0x8(%ebp),%edx
 8048e80:	b8 01 00 00 00       	mov    $0x1,%eax
 8048e85:	f0 0f c1 02          	lock xadd %eax,(%edx)
 8048e89:	83 c0 01             	add    $0x1,%eax
 8048e8c:	5d                   	pop    %ebp
 8048e8d:	c3                   	ret    

08048e8e <_ZSt7forwardIRFvvEEOT_RNSt16remove_referenceIS2_E4typeE>:
 8048e8e:	55                   	push   %ebp
 8048e8f:	89 e5                	mov    %esp,%ebp
 8048e91:	8b 45 08             	mov    0x8(%ebp),%eax
 8048e94:	5d                   	pop    %ebp
 8048e95:	c3                   	ret    

08048e96 <_ZNSt12__shared_ptrINSt6thread5_ImplISt12_Bind_simpleIFPFvvEvEEEELN9__gnu_cxx12_Lock_policyE2EED1Ev>:
 8048e96:	55                   	push   %ebp
 8048e97:	89 e5                	mov    %esp,%ebp
 8048e99:	83 ec 18             	sub    $0x18,%esp
 8048e9c:	8b 45 08             	mov    0x8(%ebp),%eax
 8048e9f:	83 c0 04             	add    $0x4,%eax
 8048ea2:	89 04 24             	mov    %eax,(%esp)
 8048ea5:	e8 5a ff ff ff       	call   8048e04 <_ZNSt14__shared_countILN9__gnu_cxx12_Lock_policyE2EED1Ev>
 8048eaa:	c9                   	leave  
 8048eab:	c3                   	ret    

08048eac <_ZNSt10shared_ptrINSt6thread5_ImplISt12_Bind_simpleIFPFvvEvEEEEED1Ev>:
 8048eac:	55                   	push   %ebp
 8048ead:	89 e5                	mov    %esp,%ebp
 8048eaf:	83 ec 18             	sub    $0x18,%esp
 8048eb2:	8b 45 08             	mov    0x8(%ebp),%eax
 8048eb5:	89 04 24             	mov    %eax,(%esp)
 8048eb8:	e8 d9 ff ff ff       	call   8048e96 <_ZNSt12__shared_ptrINSt6thread5_ImplISt12_Bind_simpleIFPFvvEvEEEELN9__gnu_cxx12_Lock_policyE2EED1Ev>
 8048ebd:	c9                   	leave  
 8048ebe:	c3                   	ret    
 8048ebf:	90                   	nop

08048ec0 <_ZNSt6threadC1IRFvvEIEEEOT_DpOT0_>:
 8048ec0:	55                   	push   %ebp
 8048ec1:	89 e5                	mov    %esp,%ebp
 8048ec3:	53                   	push   %ebx
 8048ec4:	83 ec 34             	sub    $0x34,%esp
 8048ec7:	8b 45 08             	mov    0x8(%ebp),%eax
 8048eca:	89 04 24             	mov    %eax,(%esp)
 8048ecd:	e8 f2 fd ff ff       	call   8048cc4 <_ZNSt6thread2idC1Ev>
 8048ed2:	8b 45 0c             	mov    0xc(%ebp),%eax
 8048ed5:	89 04 24             	mov    %eax,(%esp)
 8048ed8:	e8 b1 ff ff ff       	call   8048e8e <_ZSt7forwardIRFvvEEOT_RNSt16remove_referenceIS2_E4typeE>
 8048edd:	8d 55 e4             	lea    -0x1c(%ebp),%edx
 8048ee0:	89 44 24 04          	mov    %eax,0x4(%esp)
 8048ee4:	89 14 24             	mov    %edx,(%esp)
 8048ee7:	e8 d2 01 00 00       	call   80490be <_ZSt13__bind_simpleIRFvvEIEENSt19_Bind_simple_helperIT_IDpT0_EE6__typeEOS3_DpOS4_>
 8048eec:	83 ec 04             	sub    $0x4,%esp
 8048eef:	8d 45 f0             	lea    -0x10(%ebp),%eax
 8048ef2:	8d 55 e4             	lea    -0x1c(%ebp),%edx
 8048ef5:	89 54 24 08          	mov    %edx,0x8(%esp)
 8048ef9:	8b 55 08             	mov    0x8(%ebp),%edx
 8048efc:	89 54 24 04          	mov    %edx,0x4(%esp)
 8048f00:	89 04 24             	mov    %eax,(%esp)
 8048f03:	e8 f4 01 00 00       	call   80490fc <_ZNSt6thread15_M_make_routineISt12_Bind_simpleIFPFvvEvEEEESt10shared_ptrINS_5_ImplIT_EEEOS8_>
 8048f08:	83 ec 04             	sub    $0x4,%esp
 8048f0b:	8d 45 f0             	lea    -0x10(%ebp),%eax
 8048f0e:	89 44 24 04          	mov    %eax,0x4(%esp)
 8048f12:	8d 45 e8             	lea    -0x18(%ebp),%eax
 8048f15:	89 04 24             	mov    %eax,(%esp)
 8048f18:	e8 11 02 00 00       	call   804912e <_ZNSt10shared_ptrINSt6thread10_Impl_baseEEC1INS0_5_ImplISt12_Bind_simpleIFPFvvEvEEEEvEEOS_IT_E>
 8048f1d:	8d 45 e8             	lea    -0x18(%ebp),%eax
 8048f20:	89 44 24 04          	mov    %eax,0x4(%esp)
 8048f24:	8b 45 08             	mov    0x8(%ebp),%eax
 8048f27:	89 04 24             	mov    %eax,(%esp)
 8048f2a:	e8 a1 f8 ff ff       	call   80487d0 <_ZNSt6thread15_M_start_threadESt10shared_ptrINS_10_Impl_baseEE@plt>
 8048f2f:	8d 45 e8             	lea    -0x18(%ebp),%eax
 8048f32:	89 04 24             	mov    %eax,(%esp)
 8048f35:	e8 14 fe ff ff       	call   8048d4e <_ZNSt10shared_ptrINSt6thread10_Impl_baseEED1Ev>
 8048f3a:	8d 45 f0             	lea    -0x10(%ebp),%eax
 8048f3d:	89 04 24             	mov    %eax,(%esp)
 8048f40:	e8 67 ff ff ff       	call   8048eac <_ZNSt10shared_ptrINSt6thread5_ImplISt12_Bind_simpleIFPFvvEvEEEEED1Ev>
 8048f45:	eb 22                	jmp    8048f69 <_ZNSt6threadC1IRFvvEIEEEOT_DpOT0_+0xa9>
 8048f47:	89 c3                	mov    %eax,%ebx
 8048f49:	8d 45 e8             	lea    -0x18(%ebp),%eax
 8048f4c:	89 04 24             	mov    %eax,(%esp)
 8048f4f:	e8 fa fd ff ff       	call   8048d4e <_ZNSt10shared_ptrINSt6thread10_Impl_baseEED1Ev>
 8048f54:	8d 45 f0             	lea    -0x10(%ebp),%eax
 8048f57:	89 04 24             	mov    %eax,(%esp)
 8048f5a:	e8 4d ff ff ff       	call   8048eac <_ZNSt10shared_ptrINSt6thread5_ImplISt12_Bind_simpleIFPFvvEvEEEEED1Ev>
 8048f5f:	89 d8                	mov    %ebx,%eax
 8048f61:	89 04 24             	mov    %eax,(%esp)
 8048f64:	e8 27 f9 ff ff       	call   8048890 <_Unwind_Resume@plt>
 8048f69:	8b 5d fc             	mov    -0x4(%ebp),%ebx
 8048f6c:	c9                   	leave  
 8048f6d:	c3                   	ret    

08048f6e <_ZNKSt13__atomic_baseIiE4loadESt12memory_order>:
 8048f6e:	55                   	push   %ebp
 8048f6f:	89 e5                	mov    %esp,%ebp
 8048f71:	83 ec 28             	sub    $0x28,%esp
 8048f74:	c7 44 24 04 ff ff 00 	movl   $0xffff,0x4(%esp)
 8048f7b:	00 
 8048f7c:	8b 45 0c             	mov    0xc(%ebp),%eax
 8048f7f:	89 04 24             	mov    %eax,(%esp)
 8048f82:	e8 2d fe ff ff       	call   8048db4 <_ZStanSt12memory_orderSt23__memory_order_modifier>
 8048f87:	89 45 f4             	mov    %eax,-0xc(%ebp)
 8048f8a:	8b 45 08             	mov    0x8(%ebp),%eax
 8048f8d:	8b 00                	mov    (%eax),%eax
 8048f8f:	c9                   	leave  
 8048f90:	c3                   	ret    
 8048f91:	90                   	nop

08048f92 <_ZNSt16_Sp_counted_baseILN9__gnu_cxx12_Lock_policyE2EE10_M_releaseEv>:
 8048f92:	55                   	push   %ebp
 8048f93:	89 e5                	mov    %esp,%ebp
 8048f95:	83 ec 18             	sub    $0x18,%esp
 8048f98:	8b 45 08             	mov    0x8(%ebp),%eax
 8048f9b:	83 c0 04             	add    $0x4,%eax
 8048f9e:	c7 44 24 04 ff ff ff 	movl   $0xffffffff,0x4(%esp)
 8048fa5:	ff 
 8048fa6:	89 04 24             	mov    %eax,(%esp)
 8048fa9:	e8 5e fa ff ff       	call   8048a0c <_ZN9__gnu_cxxL27__exchange_and_add_dispatchEPii>
 8048fae:	83 f8 01             	cmp    $0x1,%eax
 8048fb1:	0f 94 c0             	sete   %al
 8048fb4:	84 c0                	test   %al,%al
 8048fb6:	74 44                	je     8048ffc <_ZNSt16_Sp_counted_baseILN9__gnu_cxx12_Lock_policyE2EE10_M_releaseEv+0x6a>
 8048fb8:	8b 45 08             	mov    0x8(%ebp),%eax
 8048fbb:	8b 00                	mov    (%eax),%eax
 8048fbd:	83 c0 08             	add    $0x8,%eax
 8048fc0:	8b 00                	mov    (%eax),%eax
 8048fc2:	8b 55 08             	mov    0x8(%ebp),%edx
 8048fc5:	89 14 24             	mov    %edx,(%esp)
 8048fc8:	ff d0                	call   *%eax
 8048fca:	8b 45 08             	mov    0x8(%ebp),%eax
 8048fcd:	83 c0 08             	add    $0x8,%eax
 8048fd0:	c7 44 24 04 ff ff ff 	movl   $0xffffffff,0x4(%esp)
 8048fd7:	ff 
 8048fd8:	89 04 24             	mov    %eax,(%esp)
 8048fdb:	e8 2c fa ff ff       	call   8048a0c <_ZN9__gnu_cxxL27__exchange_and_add_dispatchEPii>
 8048fe0:	83 f8 01             	cmp    $0x1,%eax
 8048fe3:	0f 94 c0             	sete   %al
 8048fe6:	84 c0                	test   %al,%al
 8048fe8:	74 12                	je     8048ffc <_ZNSt16_Sp_counted_baseILN9__gnu_cxx12_Lock_policyE2EE10_M_releaseEv+0x6a>
 8048fea:	8b 45 08             	mov    0x8(%ebp),%eax
 8048fed:	8b 00                	mov    (%eax),%eax
 8048fef:	83 c0 0c             	add    $0xc,%eax
 8048ff2:	8b 00                	mov    (%eax),%eax
 8048ff4:	8b 55 08             	mov    0x8(%ebp),%edx
 8048ff7:	89 14 24             	mov    %edx,(%esp)
 8048ffa:	ff d0                	call   *%eax
 8048ffc:	c9                   	leave  
 8048ffd:	c3                   	ret    

08048ffe <_ZNSt11_Tuple_implILj0EIPFvvEEE7_M_tailERS2_>:
 8048ffe:	55                   	push   %ebp
 8048fff:	89 e5                	mov    %esp,%ebp
 8049001:	8b 45 08             	mov    0x8(%ebp),%eax
 8049004:	5d                   	pop    %ebp
 8049005:	c3                   	ret    

08049006 <_ZSt4moveIRSt11_Tuple_implILj1EIEEEONSt16remove_referenceIT_E4typeEOS4_>:
 8049006:	55                   	push   %ebp
 8049007:	89 e5                	mov    %esp,%ebp
 8049009:	8b 45 08             	mov    0x8(%ebp),%eax
 804900c:	5d                   	pop    %ebp
 804900d:	c3                   	ret    

0804900e <_ZNSt10_Head_baseILj0EPFvvELb0EE7_M_headERS2_>:
 804900e:	55                   	push   %ebp
 804900f:	89 e5                	mov    %esp,%ebp
 8049011:	8b 45 08             	mov    0x8(%ebp),%eax
 8049014:	5d                   	pop    %ebp
 8049015:	c3                   	ret    

08049016 <_ZNSt11_Tuple_implILj0EIPFvvEEE7_M_headERS2_>:
 8049016:	55                   	push   %ebp
 8049017:	89 e5                	mov    %esp,%ebp
 8049019:	83 ec 18             	sub    $0x18,%esp
 804901c:	8b 45 08             	mov    0x8(%ebp),%eax
 804901f:	89 04 24             	mov    %eax,(%esp)
 8049022:	e8 e7 ff ff ff       	call   804900e <_ZNSt10_Head_baseILj0EPFvvELb0EE7_M_headERS2_>
 8049027:	c9                   	leave  
 8049028:	c3                   	ret    

08049029 <_ZSt7forwardIPFvvEEOT_RNSt16remove_referenceIS2_E4typeE>:
 8049029:	55                   	push   %ebp
 804902a:	89 e5                	mov    %esp,%ebp
 804902c:	8b 45 08             	mov    0x8(%ebp),%eax
 804902f:	5d                   	pop    %ebp
 8049030:	c3                   	ret    
 8049031:	90                   	nop

08049032 <_ZNSt10_Head_baseILj0EPFvvELb0EEC1IS1_EEOT_>:
 8049032:	55                   	push   %ebp
 8049033:	89 e5                	mov    %esp,%ebp
 8049035:	83 ec 18             	sub    $0x18,%esp
 8049038:	8b 45 0c             	mov    0xc(%ebp),%eax
 804903b:	89 04 24             	mov    %eax,(%esp)
 804903e:	e8 e6 ff ff ff       	call   8049029 <_ZSt7forwardIPFvvEEOT_RNSt16remove_referenceIS2_E4typeE>
 8049043:	8b 10                	mov    (%eax),%edx
 8049045:	8b 45 08             	mov    0x8(%ebp),%eax
 8049048:	89 10                	mov    %edx,(%eax)
 804904a:	c9                   	leave  
 804904b:	c3                   	ret    

0804904c <_ZNSt11_Tuple_implILj0EIPFvvEEEC1EOS2_>:
 804904c:	55                   	push   %ebp
 804904d:	89 e5                	mov    %esp,%ebp
 804904f:	83 ec 18             	sub    $0x18,%esp
 8049052:	8b 45 0c             	mov    0xc(%ebp),%eax
 8049055:	89 04 24             	mov    %eax,(%esp)
 8049058:	e8 a1 ff ff ff       	call   8048ffe <_ZNSt11_Tuple_implILj0EIPFvvEEE7_M_tailERS2_>
 804905d:	89 04 24             	mov    %eax,(%esp)
 8049060:	e8 a1 ff ff ff       	call   8049006 <_ZSt4moveIRSt11_Tuple_implILj1EIEEEONSt16remove_referenceIT_E4typeEOS4_>
 8049065:	8b 45 0c             	mov    0xc(%ebp),%eax
 8049068:	89 04 24             	mov    %eax,(%esp)
 804906b:	e8 a6 ff ff ff       	call   8049016 <_ZNSt11_Tuple_implILj0EIPFvvEEE7_M_headERS2_>
 8049070:	89 04 24             	mov    %eax,(%esp)
 8049073:	e8 b1 ff ff ff       	call   8049029 <_ZSt7forwardIPFvvEEOT_RNSt16remove_referenceIS2_E4typeE>
 8049078:	8b 55 08             	mov    0x8(%ebp),%edx
 804907b:	89 44 24 04          	mov    %eax,0x4(%esp)
 804907f:	89 14 24             	mov    %edx,(%esp)
 8049082:	e8 ab ff ff ff       	call   8049032 <_ZNSt10_Head_baseILj0EPFvvELb0EEC1IS1_EEOT_>
 8049087:	c9                   	leave  
 8049088:	c3                   	ret    
 8049089:	90                   	nop

0804908a <_ZNSt5tupleIIPFvvEEEC1EOS2_>:
 804908a:	55                   	push   %ebp
 804908b:	89 e5                	mov    %esp,%ebp
 804908d:	83 ec 18             	sub    $0x18,%esp
 8049090:	8b 55 0c             	mov    0xc(%ebp),%edx
 8049093:	8b 45 08             	mov    0x8(%ebp),%eax
 8049096:	89 54 24 04          	mov    %edx,0x4(%esp)
 804909a:	89 04 24             	mov    %eax,(%esp)
 804909d:	e8 aa ff ff ff       	call   804904c <_ZNSt11_Tuple_implILj0EIPFvvEEEC1EOS2_>
 80490a2:	c9                   	leave  
 80490a3:	c3                   	ret    

080490a4 <_ZNSt12_Bind_simpleIFPFvvEvEEC1EOS3_>:
 80490a4:	55                   	push   %ebp
 80490a5:	89 e5                	mov    %esp,%ebp
 80490a7:	83 ec 18             	sub    $0x18,%esp
 80490aa:	8b 55 0c             	mov    0xc(%ebp),%edx
 80490ad:	8b 45 08             	mov    0x8(%ebp),%eax
 80490b0:	89 54 24 04          	mov    %edx,0x4(%esp)
 80490b4:	89 04 24             	mov    %eax,(%esp)
 80490b7:	e8 ce ff ff ff       	call   804908a <_ZNSt5tupleIIPFvvEEEC1EOS2_>
 80490bc:	c9                   	leave  
 80490bd:	c3                   	ret    

080490be <_ZSt13__bind_simpleIRFvvEIEENSt19_Bind_simple_helperIT_IDpT0_EE6__typeEOS3_DpOS4_>:
 80490be:	55                   	push   %ebp
 80490bf:	89 e5                	mov    %esp,%ebp
 80490c1:	83 ec 28             	sub    $0x28,%esp
 80490c4:	8b 45 0c             	mov    0xc(%ebp),%eax
 80490c7:	89 04 24             	mov    %eax,(%esp)
 80490ca:	e8 bf fd ff ff       	call   8048e8e <_ZSt7forwardIRFvvEEOT_RNSt16remove_referenceIS2_E4typeE>
 80490cf:	89 45 f4             	mov    %eax,-0xc(%ebp)
 80490d2:	8d 45 f4             	lea    -0xc(%ebp),%eax
 80490d5:	89 04 24             	mov    %eax,(%esp)
 80490d8:	e8 95 00 00 00       	call   8049172 <_ZNSt26_Maybe_wrap_member_pointerIPFvvEE9__do_wrapEOS1_>
 80490dd:	89 44 24 04          	mov    %eax,0x4(%esp)
 80490e1:	8b 45 08             	mov    0x8(%ebp),%eax
 80490e4:	89 04 24             	mov    %eax,(%esp)
 80490e7:	e8 ec 00 00 00       	call   80491d8 <_ZNSt12_Bind_simpleIFPFvvEvEEC1IIEvEEOS1_DpOT_>
 80490ec:	8b 45 08             	mov    0x8(%ebp),%eax
 80490ef:	c9                   	leave  
 80490f0:	c2 04 00             	ret    $0x4

080490f3 <_ZSt7forwardISt12_Bind_simpleIFPFvvEvEEEOT_RNSt16remove_referenceIS5_E4typeE>:
 80490f3:	55                   	push   %ebp
 80490f4:	89 e5                	mov    %esp,%ebp
 80490f6:	8b 45 08             	mov    0x8(%ebp),%eax
 80490f9:	5d                   	pop    %ebp
 80490fa:	c3                   	ret    
 80490fb:	90                   	nop

080490fc <_ZNSt6thread15_M_make_routineISt12_Bind_simpleIFPFvvEvEEEESt10shared_ptrINS_5_ImplIT_EEEOS8_>:
 80490fc:	55                   	push   %ebp
 80490fd:	89 e5                	mov    %esp,%ebp
 80490ff:	83 ec 18             	sub    $0x18,%esp
 8049102:	8b 45 10             	mov    0x10(%ebp),%eax
 8049105:	89 04 24             	mov    %eax,(%esp)
 8049108:	e8 e6 ff ff ff       	call   80490f3 <_ZSt7forwardISt12_Bind_simpleIFPFvvEvEEEOT_RNSt16remove_referenceIS5_E4typeE>
 804910d:	8b 55 08             	mov    0x8(%ebp),%edx
 8049110:	89 44 24 04          	mov    %eax,0x4(%esp)
 8049114:	89 14 24             	mov    %edx,(%esp)
 8049117:	e8 de 00 00 00       	call   80491fa <_ZSt11make_sharedINSt6thread5_ImplISt12_Bind_simpleIFPFvvEvEEEEIS6_EESt10shared_ptrIT_EDpOT0_>
 804911c:	83 ec 04             	sub    $0x4,%esp
 804911f:	8b 45 08             	mov    0x8(%ebp),%eax
 8049122:	c9                   	leave  
 8049123:	c2 04 00             	ret    $0x4

08049126 <_ZSt4moveIRSt10shared_ptrINSt6thread5_ImplISt12_Bind_simpleIFPFvvEvEEEEEEONSt16remove_referenceIT_E4typeEOSC_>:
 8049126:	55                   	push   %ebp
 8049127:	89 e5                	mov    %esp,%ebp
 8049129:	8b 45 08             	mov    0x8(%ebp),%eax
 804912c:	5d                   	pop    %ebp
 804912d:	c3                   	ret    

0804912e <_ZNSt10shared_ptrINSt6thread10_Impl_baseEEC1INS0_5_ImplISt12_Bind_simpleIFPFvvEvEEEEvEEOS_IT_E>:
 804912e:	55                   	push   %ebp
 804912f:	89 e5                	mov    %esp,%ebp
 8049131:	83 ec 18             	sub    $0x18,%esp
 8049134:	8b 45 0c             	mov    0xc(%ebp),%eax
 8049137:	89 04 24             	mov    %eax,(%esp)
 804913a:	e8 e7 ff ff ff       	call   8049126 <_ZSt4moveIRSt10shared_ptrINSt6thread5_ImplISt12_Bind_simpleIFPFvvEvEEEEEEONSt16remove_referenceIT_E4typeEOSC_>
 804913f:	89 c2                	mov    %eax,%edx
 8049141:	8b 45 08             	mov    0x8(%ebp),%eax
 8049144:	89 54 24 04          	mov    %edx,0x4(%esp)
 8049148:	89 04 24             	mov    %eax,(%esp)
 804914b:	e8 1e 01 00 00       	call   804926e <_ZNSt12__shared_ptrINSt6thread10_Impl_baseELN9__gnu_cxx12_Lock_policyE2EEC1INS0_5_ImplISt12_Bind_simpleIFPFvvEvEEEEvEEOS_IT_LS3_2EE>
 8049150:	c9                   	leave  
 8049151:	c3                   	ret    

08049152 <_ZNSt16_Sp_counted_baseILN9__gnu_cxx12_Lock_policyE2EE10_M_destroyEv>:
 8049152:	55                   	push   %ebp
 8049153:	89 e5                	mov    %esp,%ebp
 8049155:	83 ec 18             	sub    $0x18,%esp
 8049158:	83 7d 08 00          	cmpl   $0x0,0x8(%ebp)
 804915c:	74 12                	je     8049170 <_ZNSt16_Sp_counted_baseILN9__gnu_cxx12_Lock_policyE2EE10_M_destroyEv+0x1e>
 804915e:	8b 45 08             	mov    0x8(%ebp),%eax
 8049161:	8b 00                	mov    (%eax),%eax
 8049163:	83 c0 04             	add    $0x4,%eax
 8049166:	8b 00                	mov    (%eax),%eax
 8049168:	8b 55 08             	mov    0x8(%ebp),%edx
 804916b:	89 14 24             	mov    %edx,(%esp)
 804916e:	ff d0                	call   *%eax
 8049170:	c9                   	leave  
 8049171:	c3                   	ret    

08049172 <_ZNSt26_Maybe_wrap_member_pointerIPFvvEE9__do_wrapEOS1_>:
 8049172:	55                   	push   %ebp
 8049173:	89 e5                	mov    %esp,%ebp
 8049175:	8b 45 08             	mov    0x8(%ebp),%eax
 8049178:	5d                   	pop    %ebp
 8049179:	c3                   	ret    

0804917a <_ZSt4moveIRPFvvEEONSt16remove_referenceIT_E4typeEOS4_>:
 804917a:	55                   	push   %ebp
 804917b:	89 e5                	mov    %esp,%ebp
 804917d:	8b 45 08             	mov    0x8(%ebp),%eax
 8049180:	5d                   	pop    %ebp
 8049181:	c3                   	ret    

08049182 <_ZNSt11_Tuple_implILj1EIEEC1Ev>:
 8049182:	55                   	push   %ebp
 8049183:	89 e5                	mov    %esp,%ebp
 8049185:	5d                   	pop    %ebp
 8049186:	c3                   	ret    
 8049187:	90                   	nop

08049188 <_ZNSt11_Tuple_implILj0EIPFvvEEEC1IS1_IEvEEOT_DpOT0_>:
 8049188:	55                   	push   %ebp
 8049189:	89 e5                	mov    %esp,%ebp
 804918b:	83 ec 18             	sub    $0x18,%esp
 804918e:	8b 45 08             	mov    0x8(%ebp),%eax
 8049191:	89 04 24             	mov    %eax,(%esp)
 8049194:	e8 e9 ff ff ff       	call   8049182 <_ZNSt11_Tuple_implILj1EIEEC1Ev>
 8049199:	8b 45 0c             	mov    0xc(%ebp),%eax
 804919c:	89 04 24             	mov    %eax,(%esp)
 804919f:	e8 85 fe ff ff       	call   8049029 <_ZSt7forwardIPFvvEEOT_RNSt16remove_referenceIS2_E4typeE>
 80491a4:	8b 55 08             	mov    0x8(%ebp),%edx
 80491a7:	89 44 24 04          	mov    %eax,0x4(%esp)
 80491ab:	89 14 24             	mov    %edx,(%esp)
 80491ae:	e8 7f fe ff ff       	call   8049032 <_ZNSt10_Head_baseILj0EPFvvELb0EEC1IS1_EEOT_>
 80491b3:	c9                   	leave  
 80491b4:	c3                   	ret    
 80491b5:	90                   	nop

080491b6 <_ZNSt5tupleIIPFvvEEEC1IIS1_EvEEDpOT_>:
 80491b6:	55                   	push   %ebp
 80491b7:	89 e5                	mov    %esp,%ebp
 80491b9:	83 ec 18             	sub    $0x18,%esp
 80491bc:	8b 45 0c             	mov    0xc(%ebp),%eax
 80491bf:	89 04 24             	mov    %eax,(%esp)
 80491c2:	e8 62 fe ff ff       	call   8049029 <_ZSt7forwardIPFvvEEOT_RNSt16remove_referenceIS2_E4typeE>
 80491c7:	8b 55 08             	mov    0x8(%ebp),%edx
 80491ca:	89 44 24 04          	mov    %eax,0x4(%esp)
 80491ce:	89 14 24             	mov    %edx,(%esp)
 80491d1:	e8 b2 ff ff ff       	call   8049188 <_ZNSt11_Tuple_implILj0EIPFvvEEEC1IS1_IEvEEOT_DpOT0_>
 80491d6:	c9                   	leave  
 80491d7:	c3                   	ret    

080491d8 <_ZNSt12_Bind_simpleIFPFvvEvEEC1IIEvEEOS1_DpOT_>:
 80491d8:	55                   	push   %ebp
 80491d9:	89 e5                	mov    %esp,%ebp
 80491db:	83 ec 18             	sub    $0x18,%esp
 80491de:	8b 45 0c             	mov    0xc(%ebp),%eax
 80491e1:	89 04 24             	mov    %eax,(%esp)
 80491e4:	e8 91 ff ff ff       	call   804917a <_ZSt4moveIRPFvvEEONSt16remove_referenceIT_E4typeEOS4_>
 80491e9:	8b 55 08             	mov    0x8(%ebp),%edx
 80491ec:	89 44 24 04          	mov    %eax,0x4(%esp)
 80491f0:	89 14 24             	mov    %edx,(%esp)
 80491f3:	e8 be ff ff ff       	call   80491b6 <_ZNSt5tupleIIPFvvEEEC1IIS1_EvEEDpOT_>
 80491f8:	c9                   	leave  
 80491f9:	c3                   	ret    

080491fa <_ZSt11make_sharedINSt6thread5_ImplISt12_Bind_simpleIFPFvvEvEEEEIS6_EESt10shared_ptrIT_EDpOT0_>:
 80491fa:	55                   	push   %ebp
 80491fb:	89 e5                	mov    %esp,%ebp
 80491fd:	53                   	push   %ebx
 80491fe:	83 ec 24             	sub    $0x24,%esp
 8049201:	8b 45 0c             	mov    0xc(%ebp),%eax
 8049204:	89 04 24             	mov    %eax,(%esp)
 8049207:	e8 e7 fe ff ff       	call   80490f3 <_ZSt7forwardISt12_Bind_simpleIFPFvvEvEEEOT_RNSt16remove_referenceIS5_E4typeE>
 804920c:	89 c3                	mov    %eax,%ebx
 804920e:	8d 45 f7             	lea    -0x9(%ebp),%eax
 8049211:	89 04 24             	mov    %eax,(%esp)
 8049214:	e8 db 00 00 00       	call   80492f4 <_ZNSaINSt6thread5_ImplISt12_Bind_simpleIFPFvvEvEEEEEC1Ev>
 8049219:	8b 45 08             	mov    0x8(%ebp),%eax
 804921c:	89 5c 24 08          	mov    %ebx,0x8(%esp)
 8049220:	8d 55 f7             	lea    -0x9(%ebp),%edx
 8049223:	89 54 24 04          	mov    %edx,0x4(%esp)
 8049227:	89 04 24             	mov    %eax,(%esp)
 804922a:	e8 ec 00 00 00       	call   804931b <_ZSt15allocate_sharedINSt6thread5_ImplISt12_Bind_simpleIFPFvvEvEEEESaIS7_EIS6_EESt10shared_ptrIT_ERKT0_DpOT1_>
 804922f:	83 ec 04             	sub    $0x4,%esp
 8049232:	8d 45 f7             	lea    -0x9(%ebp),%eax
 8049235:	89 04 24             	mov    %eax,(%esp)
 8049238:	e8 cb 00 00 00       	call   8049308 <_ZNSaINSt6thread5_ImplISt12_Bind_simpleIFPFvvEvEEEEED1Ev>
 804923d:	eb 17                	jmp    8049256 <_ZSt11make_sharedINSt6thread5_ImplISt12_Bind_simpleIFPFvvEvEEEEIS6_EESt10shared_ptrIT_EDpOT0_+0x5c>
 804923f:	89 c3                	mov    %eax,%ebx
 8049241:	8d 45 f7             	lea    -0x9(%ebp),%eax
 8049244:	89 04 24             	mov    %eax,(%esp)
 8049247:	e8 bc 00 00 00       	call   8049308 <_ZNSaINSt6thread5_ImplISt12_Bind_simpleIFPFvvEvEEEEED1Ev>
 804924c:	89 d8                	mov    %ebx,%eax
 804924e:	89 04 24             	mov    %eax,(%esp)
 8049251:	e8 3a f6 ff ff       	call   8048890 <_Unwind_Resume@plt>
 8049256:	8b 45 08             	mov    0x8(%ebp),%eax
 8049259:	8b 5d fc             	mov    -0x4(%ebp),%ebx
 804925c:	c9                   	leave  
 804925d:	c2 04 00             	ret    $0x4

08049260 <_ZNSt14__shared_countILN9__gnu_cxx12_Lock_policyE2EEC1Ev>:
 8049260:	55                   	push   %ebp
 8049261:	89 e5                	mov    %esp,%ebp
 8049263:	8b 45 08             	mov    0x8(%ebp),%eax
 8049266:	c7 00 00 00 00 00    	movl   $0x0,(%eax)
 804926c:	5d                   	pop    %ebp
 804926d:	c3                   	ret    

0804926e <_ZNSt12__shared_ptrINSt6thread10_Impl_baseELN9__gnu_cxx12_Lock_policyE2EEC1INS0_5_ImplISt12_Bind_simpleIFPFvvEvEEEEvEEOS_IT_LS3_2EE>:
 804926e:	55                   	push   %ebp
 804926f:	89 e5                	mov    %esp,%ebp
 8049271:	83 ec 18             	sub    $0x18,%esp
 8049274:	8b 45 0c             	mov    0xc(%ebp),%eax
 8049277:	8b 10                	mov    (%eax),%edx
 8049279:	8b 45 08             	mov    0x8(%ebp),%eax
 804927c:	89 10                	mov    %edx,(%eax)
 804927e:	8b 45 08             	mov    0x8(%ebp),%eax
 8049281:	83 c0 04             	add    $0x4,%eax
 8049284:	89 04 24             	mov    %eax,(%esp)
 8049287:	e8 d4 ff ff ff       	call   8049260 <_ZNSt14__shared_countILN9__gnu_cxx12_Lock_policyE2EEC1Ev>
 804928c:	8b 45 0c             	mov    0xc(%ebp),%eax
 804928f:	8d 50 04             	lea    0x4(%eax),%edx
 8049292:	8b 45 08             	mov    0x8(%ebp),%eax
 8049295:	83 c0 04             	add    $0x4,%eax
 8049298:	89 54 24 04          	mov    %edx,0x4(%esp)
 804929c:	89 04 24             	mov    %eax,(%esp)
 804929f:	e8 ae 00 00 00       	call   8049352 <_ZNSt14__shared_countILN9__gnu_cxx12_Lock_policyE2EE7_M_swapERS2_>
 80492a4:	8b 45 0c             	mov    0xc(%ebp),%eax
 80492a7:	c7 00 00 00 00 00    	movl   $0x0,(%eax)
 80492ad:	c9                   	leave  
 80492ae:	c3                   	ret    
 80492af:	90                   	nop

080492b0 <_ZNSt16_Sp_counted_baseILN9__gnu_cxx12_Lock_policyE2EED1Ev>:
 80492b0:	55                   	push   %ebp
 80492b1:	89 e5                	mov    %esp,%ebp
 80492b3:	83 ec 18             	sub    $0x18,%esp
 80492b6:	8b 45 08             	mov    0x8(%ebp),%eax
 80492b9:	c7 00 d8 9c 04 08    	movl   $0x8049cd8,(%eax)
 80492bf:	b8 00 00 00 00       	mov    $0x0,%eax
 80492c4:	85 c0                	test   %eax,%eax
 80492c6:	74 0b                	je     80492d3 <_ZNSt16_Sp_counted_baseILN9__gnu_cxx12_Lock_policyE2EED1Ev+0x23>
 80492c8:	8b 45 08             	mov    0x8(%ebp),%eax
 80492cb:	89 04 24             	mov    %eax,(%esp)
 80492ce:	e8 cd f4 ff ff       	call   80487a0 <_ZdlPv@plt>
 80492d3:	c9                   	leave  
 80492d4:	c3                   	ret    
 80492d5:	90                   	nop

080492d6 <_ZNSt16_Sp_counted_baseILN9__gnu_cxx12_Lock_policyE2EED0Ev>:
 80492d6:	55                   	push   %ebp
 80492d7:	89 e5                	mov    %esp,%ebp
 80492d9:	83 ec 18             	sub    $0x18,%esp
 80492dc:	8b 45 08             	mov    0x8(%ebp),%eax
 80492df:	89 04 24             	mov    %eax,(%esp)
 80492e2:	e8 c9 ff ff ff       	call   80492b0 <_ZNSt16_Sp_counted_baseILN9__gnu_cxx12_Lock_policyE2EED1Ev>
 80492e7:	8b 45 08             	mov    0x8(%ebp),%eax
 80492ea:	89 04 24             	mov    %eax,(%esp)
 80492ed:	e8 ae f4 ff ff       	call   80487a0 <_ZdlPv@plt>
 80492f2:	c9                   	leave  
 80492f3:	c3                   	ret    

080492f4 <_ZNSaINSt6thread5_ImplISt12_Bind_simpleIFPFvvEvEEEEEC1Ev>:
 80492f4:	55                   	push   %ebp
 80492f5:	89 e5                	mov    %esp,%ebp
 80492f7:	83 ec 18             	sub    $0x18,%esp
 80492fa:	8b 45 08             	mov    0x8(%ebp),%eax
 80492fd:	89 04 24             	mov    %eax,(%esp)
 8049300:	e8 6f 00 00 00       	call   8049374 <_ZN9__gnu_cxx13new_allocatorINSt6thread5_ImplISt12_Bind_simpleIFPFvvEvEEEEEC1Ev>
 8049305:	c9                   	leave  
 8049306:	c3                   	ret    
 8049307:	90                   	nop

08049308 <_ZNSaINSt6thread5_ImplISt12_Bind_simpleIFPFvvEvEEEEED1Ev>:
 8049308:	55                   	push   %ebp
 8049309:	89 e5                	mov    %esp,%ebp
 804930b:	83 ec 18             	sub    $0x18,%esp
 804930e:	8b 45 08             	mov    0x8(%ebp),%eax
 8049311:	89 04 24             	mov    %eax,(%esp)
 8049314:	e8 61 00 00 00       	call   804937a <_ZN9__gnu_cxx13new_allocatorINSt6thread5_ImplISt12_Bind_simpleIFPFvvEvEEEEED1Ev>
 8049319:	c9                   	leave  
 804931a:	c3                   	ret    

0804931b <_ZSt15allocate_sharedINSt6thread5_ImplISt12_Bind_simpleIFPFvvEvEEEESaIS7_EIS6_EESt10shared_ptrIT_ERKT0_DpOT1_>:
 804931b:	55                   	push   %ebp
 804931c:	89 e5                	mov    %esp,%ebp
 804931e:	53                   	push   %ebx
 804931f:	83 ec 24             	sub    $0x24,%esp
 8049322:	8b 45 10             	mov    0x10(%ebp),%eax
 8049325:	89 04 24             	mov    %eax,(%esp)
 8049328:	e8 c6 fd ff ff       	call   80490f3 <_ZSt7forwardISt12_Bind_simpleIFPFvvEvEEEOT_RNSt16remove_referenceIS5_E4typeE>
 804932d:	89 44 24 0c          	mov    %eax,0xc(%esp)
 8049331:	8b 45 0c             	mov    0xc(%ebp),%eax
 8049334:	89 44 24 08          	mov    %eax,0x8(%esp)
 8049338:	88 5c 24 04          	mov    %bl,0x4(%esp)
 804933c:	8b 45 08             	mov    0x8(%ebp),%eax
 804933f:	89 04 24             	mov    %eax,(%esp)
 8049342:	e8 39 00 00 00       	call   8049380 <_ZNSt10shared_ptrINSt6thread5_ImplISt12_Bind_simpleIFPFvvEvEEEEEC1ISaIS7_EIS6_EEESt19_Sp_make_shared_tagRKT_DpOT0_>
 8049347:	8b 45 08             	mov    0x8(%ebp),%eax
 804934a:	83 c4 24             	add    $0x24,%esp
 804934d:	5b                   	pop    %ebx
 804934e:	5d                   	pop    %ebp
 804934f:	c2 04 00             	ret    $0x4

08049352 <_ZNSt14__shared_countILN9__gnu_cxx12_Lock_policyE2EE7_M_swapERS2_>:
 8049352:	55                   	push   %ebp
 8049353:	89 e5                	mov    %esp,%ebp
 8049355:	83 ec 10             	sub    $0x10,%esp
 8049358:	8b 45 0c             	mov    0xc(%ebp),%eax
 804935b:	8b 00                	mov    (%eax),%eax
 804935d:	89 45 fc             	mov    %eax,-0x4(%ebp)
 8049360:	8b 45 08             	mov    0x8(%ebp),%eax
 8049363:	8b 10                	mov    (%eax),%edx
 8049365:	8b 45 0c             	mov    0xc(%ebp),%eax
 8049368:	89 10                	mov    %edx,(%eax)
 804936a:	8b 45 08             	mov    0x8(%ebp),%eax
 804936d:	8b 55 fc             	mov    -0x4(%ebp),%edx
 8049370:	89 10                	mov    %edx,(%eax)
 8049372:	c9                   	leave  
 8049373:	c3                   	ret    

08049374 <_ZN9__gnu_cxx13new_allocatorINSt6thread5_ImplISt12_Bind_simpleIFPFvvEvEEEEEC1Ev>:
 8049374:	55                   	push   %ebp
 8049375:	89 e5                	mov    %esp,%ebp
 8049377:	5d                   	pop    %ebp
 8049378:	c3                   	ret    
 8049379:	90                   	nop

0804937a <_ZN9__gnu_cxx13new_allocatorINSt6thread5_ImplISt12_Bind_simpleIFPFvvEvEEEEED1Ev>:
 804937a:	55                   	push   %ebp
 804937b:	89 e5                	mov    %esp,%ebp
 804937d:	5d                   	pop    %ebp
 804937e:	c3                   	ret    
 804937f:	90                   	nop

08049380 <_ZNSt10shared_ptrINSt6thread5_ImplISt12_Bind_simpleIFPFvvEvEEEEEC1ISaIS7_EIS6_EEESt19_Sp_make_shared_tagRKT_DpOT0_>:
 8049380:	55                   	push   %ebp
 8049381:	89 e5                	mov    %esp,%ebp
 8049383:	53                   	push   %ebx
 8049384:	83 ec 14             	sub    $0x14,%esp
 8049387:	8b 45 14             	mov    0x14(%ebp),%eax
 804938a:	89 04 24             	mov    %eax,(%esp)
 804938d:	e8 61 fd ff ff       	call   80490f3 <_ZSt7forwardISt12_Bind_simpleIFPFvvEvEEEOT_RNSt16remove_referenceIS5_E4typeE>
 8049392:	8b 55 08             	mov    0x8(%ebp),%edx
 8049395:	89 44 24 0c          	mov    %eax,0xc(%esp)
 8049399:	8b 45 10             	mov    0x10(%ebp),%eax
 804939c:	89 44 24 08          	mov    %eax,0x8(%esp)
 80493a0:	88 5c 24 04          	mov    %bl,0x4(%esp)
 80493a4:	89 14 24             	mov    %edx,(%esp)
 80493a7:	e8 06 00 00 00       	call   80493b2 <_ZNSt12__shared_ptrINSt6thread5_ImplISt12_Bind_simpleIFPFvvEvEEEELN9__gnu_cxx12_Lock_policyE2EEC1ISaIS7_EIS6_EEESt19_Sp_make_shared_tagRKT_DpOT0_>
 80493ac:	83 c4 14             	add    $0x14,%esp
 80493af:	5b                   	pop    %ebx
 80493b0:	5d                   	pop    %ebp
 80493b1:	c3                   	ret    

080493b2 <_ZNSt12__shared_ptrINSt6thread5_ImplISt12_Bind_simpleIFPFvvEvEEEELN9__gnu_cxx12_Lock_policyE2EEC1ISaIS7_EIS6_EEESt19_Sp_make_shared_tagRKT_DpOT0_>:
 80493b2:	55                   	push   %ebp
 80493b3:	89 e5                	mov    %esp,%ebp
 80493b5:	53                   	push   %ebx
 80493b6:	83 ec 34             	sub    $0x34,%esp
 80493b9:	8b 45 08             	mov    0x8(%ebp),%eax
 80493bc:	c7 00 00 00 00 00    	movl   $0x0,(%eax)
 80493c2:	8b 45 14             	mov    0x14(%ebp),%eax
 80493c5:	89 04 24             	mov    %eax,(%esp)
 80493c8:	e8 26 fd ff ff       	call   80490f3 <_ZSt7forwardISt12_Bind_simpleIFPFvvEvEEEOT_RNSt16remove_referenceIS5_E4typeE>
 80493cd:	8b 55 08             	mov    0x8(%ebp),%edx
 80493d0:	83 c2 04             	add    $0x4,%edx
 80493d3:	89 44 24 10          	mov    %eax,0x10(%esp)
 80493d7:	8b 45 10             	mov    0x10(%ebp),%eax
 80493da:	89 44 24 0c          	mov    %eax,0xc(%esp)
 80493de:	c7 44 24 08 00 00 00 	movl   $0x0,0x8(%esp)
 80493e5:	00 
 80493e6:	88 5c 24 04          	mov    %bl,0x4(%esp)
 80493ea:	89 14 24             	mov    %edx,(%esp)
 80493ed:	e8 58 00 00 00       	call   804944a <_ZNSt14__shared_countILN9__gnu_cxx12_Lock_policyE2EEC1INSt6thread5_ImplISt12_Bind_simpleIFPFvvEvEEEESaISB_EISA_EEESt19_Sp_make_shared_tagPT_RKT0_DpOT1_>
 80493f2:	8b 45 08             	mov    0x8(%ebp),%eax
 80493f5:	83 c0 04             	add    $0x4,%eax
 80493f8:	c7 44 24 04 94 9d 04 	movl   $0x8049d94,0x4(%esp)
 80493ff:	08 
 8049400:	89 04 24             	mov    %eax,(%esp)
 8049403:	e8 0e 01 00 00       	call   8049516 <_ZNKSt14__shared_countILN9__gnu_cxx12_Lock_policyE2EE14_M_get_deleterERKSt9type_info>
 8049408:	89 45 f4             	mov    %eax,-0xc(%ebp)
 804940b:	8b 45 08             	mov    0x8(%ebp),%eax
 804940e:	8b 55 f4             	mov    -0xc(%ebp),%edx
 8049411:	89 10                	mov    %edx,(%eax)
 8049413:	8b 45 08             	mov    0x8(%ebp),%eax
 8049416:	8b 10                	mov    (%eax),%edx
 8049418:	8b 45 08             	mov    0x8(%ebp),%eax
 804941b:	8b 00                	mov    (%eax),%eax
 804941d:	8b 4d 08             	mov    0x8(%ebp),%ecx
 8049420:	83 c1 04             	add    $0x4,%ecx
 8049423:	89 54 24 08          	mov    %edx,0x8(%esp)
 8049427:	89 44 24 04          	mov    %eax,0x4(%esp)
 804942b:	89 0c 24             	mov    %ecx,(%esp)
 804942e:	e8 18 01 00 00       	call   804954b <_ZSt32__enable_shared_from_this_helperILN9__gnu_cxx12_Lock_policyE2EEvRKSt14__shared_countIXT_EEz>
 8049433:	83 c4 34             	add    $0x34,%esp
 8049436:	5b                   	pop    %ebx
 8049437:	5d                   	pop    %ebp
 8049438:	c3                   	ret    

08049439 <_ZSt4moveIRKSaINSt6thread5_ImplISt12_Bind_simpleIFPFvvEvEEEEEEONSt16remove_referenceIT_E4typeEOSC_>:
 8049439:	55                   	push   %ebp
 804943a:	89 e5                	mov    %esp,%ebp
 804943c:	8b 45 08             	mov    0x8(%ebp),%eax
 804943f:	5d                   	pop    %ebp
 8049440:	c3                   	ret    

08049441 <_ZSt7forwardIKSaINSt6thread5_ImplISt12_Bind_simpleIFPFvvEvEEEEEEOT_RNSt16remove_referenceISA_E4typeE>:
 8049441:	55                   	push   %ebp
 8049442:	89 e5                	mov    %esp,%ebp
 8049444:	8b 45 08             	mov    0x8(%ebp),%eax
 8049447:	5d                   	pop    %ebp
 8049448:	c3                   	ret    
 8049449:	90                   	nop

0804944a <_ZNSt14__shared_countILN9__gnu_cxx12_Lock_policyE2EEC1INSt6thread5_ImplISt12_Bind_simpleIFPFvvEvEEEESaISB_EISA_EEESt19_Sp_make_shared_tagPT_RKT0_DpOT1_>:
 804944a:	55                   	push   %ebp
 804944b:	89 e5                	mov    %esp,%ebp
 804944d:	53                   	push   %ebx
 804944e:	83 ec 24             	sub    $0x24,%esp
 8049451:	8b 45 08             	mov    0x8(%ebp),%eax
 8049454:	c7 00 00 00 00 00    	movl   $0x0,(%eax)
 804945a:	8b 45 14             	mov    0x14(%ebp),%eax
 804945d:	89 44 24 04          	mov    %eax,0x4(%esp)
 8049461:	8d 45 f3             	lea    -0xd(%ebp),%eax
 8049464:	89 04 24             	mov    %eax,(%esp)
 8049467:	e8 e4 00 00 00       	call   8049550 <_ZNSaISt23_Sp_counted_ptr_inplaceINSt6thread5_ImplISt12_Bind_simpleIFPFvvEvEEEESaIS7_ELN9__gnu_cxx12_Lock_policyE2EEEC1IS7_EERKSaIT_E>
 804946c:	c7 44 24 04 01 00 00 	movl   $0x1,0x4(%esp)
 8049473:	00 
 8049474:	8d 45 f3             	lea    -0xd(%ebp),%eax
 8049477:	89 04 24             	mov    %eax,(%esp)
 804947a:	e8 f8 00 00 00       	call   8049577 <_ZNSt16allocator_traitsISaISt23_Sp_counted_ptr_inplaceINSt6thread5_ImplISt12_Bind_simpleIFPFvvEvEEEESaIS8_ELN9__gnu_cxx12_Lock_policyE2EEEE8allocateERSD_j>
 804947f:	89 45 f4             	mov    %eax,-0xc(%ebp)
 8049482:	8b 45 18             	mov    0x18(%ebp),%eax
 8049485:	89 04 24             	mov    %eax,(%esp)
 8049488:	e8 66 fc ff ff       	call   80490f3 <_ZSt7forwardISt12_Bind_simpleIFPFvvEvEEEOT_RNSt16remove_referenceIS5_E4typeE>
 804948d:	89 c3                	mov    %eax,%ebx
 804948f:	8b 45 14             	mov    0x14(%ebp),%eax
 8049492:	89 04 24             	mov    %eax,(%esp)
 8049495:	e8 9f ff ff ff       	call   8049439 <_ZSt4moveIRKSaINSt6thread5_ImplISt12_Bind_simpleIFPFvvEvEEEEEEONSt16remove_referenceIT_E4typeEOSC_>
 804949a:	89 5c 24 0c          	mov    %ebx,0xc(%esp)
 804949e:	89 44 24 08          	mov    %eax,0x8(%esp)
 80494a2:	8b 45 f4             	mov    -0xc(%ebp),%eax
 80494a5:	89 44 24 04          	mov    %eax,0x4(%esp)
 80494a9:	8d 45 f3             	lea    -0xd(%ebp),%eax
 80494ac:	89 04 24             	mov    %eax,(%esp)
 80494af:	e8 e5 00 00 00       	call   8049599 <_ZNSt16allocator_traitsISaISt23_Sp_counted_ptr_inplaceINSt6thread5_ImplISt12_Bind_simpleIFPFvvEvEEEESaIS8_ELN9__gnu_cxx12_Lock_policyE2EEEE9constructISC_IKS9_S7_EEEDTcl12_S_constructfp_fp0_spcl7forwardIT0_Efp1_EEERSD_PT_DpOSH_>
 80494b4:	8b 45 08             	mov    0x8(%ebp),%eax
 80494b7:	8b 55 f4             	mov    -0xc(%ebp),%edx
 80494ba:	89 10                	mov    %edx,(%eax)
 80494bc:	8d 45 f3             	lea    -0xd(%ebp),%eax
 80494bf:	89 04 24             	mov    %eax,(%esp)
 80494c2:	e8 9d 00 00 00       	call   8049564 <_ZNSaISt23_Sp_counted_ptr_inplaceINSt6thread5_ImplISt12_Bind_simpleIFPFvvEvEEEESaIS7_ELN9__gnu_cxx12_Lock_policyE2EEED1Ev>
 80494c7:	eb 47                	jmp    8049510 <_ZNSt14__shared_countILN9__gnu_cxx12_Lock_policyE2EEC1INSt6thread5_ImplISt12_Bind_simpleIFPFvvEvEEEESaISB_EISA_EEESt19_Sp_make_shared_tagPT_RKT0_DpOT1_+0xc6>
 80494c9:	89 c3                	mov    %eax,%ebx
 80494cb:	e8 70 f3 ff ff       	call   8048840 <__cxa_end_catch@plt>
 80494d0:	eb 29                	jmp    80494fb <_ZNSt14__shared_countILN9__gnu_cxx12_Lock_policyE2EEC1INSt6thread5_ImplISt12_Bind_simpleIFPFvvEvEEEESaISB_EISA_EEESt19_Sp_make_shared_tagPT_RKT0_DpOT1_+0xb1>
 80494d2:	89 04 24             	mov    %eax,(%esp)
 80494d5:	e8 86 f3 ff ff       	call   8048860 <__cxa_begin_catch@plt>
 80494da:	c7 44 24 08 01 00 00 	movl   $0x1,0x8(%esp)
 80494e1:	00 
 80494e2:	8b 45 f4             	mov    -0xc(%ebp),%eax
 80494e5:	89 44 24 04          	mov    %eax,0x4(%esp)
 80494e9:	8d 45 f3             	lea    -0xd(%ebp),%eax
 80494ec:	89 04 24             	mov    %eax,(%esp)
 80494ef:	e8 e4 00 00 00       	call   80495d8 <_ZNSt16allocator_traitsISaISt23_Sp_counted_ptr_inplaceINSt6thread5_ImplISt12_Bind_simpleIFPFvvEvEEEESaIS8_ELN9__gnu_cxx12_Lock_policyE2EEEE10deallocateERSD_PSC_j>
 80494f4:	e8 b7 f2 ff ff       	call   80487b0 <__cxa_rethrow@plt>
 80494f9:	89 c3                	mov    %eax,%ebx
 80494fb:	8d 45 f3             	lea    -0xd(%ebp),%eax
 80494fe:	89 04 24             	mov    %eax,(%esp)
 8049501:	e8 5e 00 00 00       	call   8049564 <_ZNSaISt23_Sp_counted_ptr_inplaceINSt6thread5_ImplISt12_Bind_simpleIFPFvvEvEEEESaIS7_ELN9__gnu_cxx12_Lock_policyE2EEED1Ev>
 8049506:	89 d8                	mov    %ebx,%eax
 8049508:	89 04 24             	mov    %eax,(%esp)
 804950b:	e8 80 f3 ff ff       	call   8048890 <_Unwind_Resume@plt>
 8049510:	83 c4 24             	add    $0x24,%esp
 8049513:	5b                   	pop    %ebx
 8049514:	5d                   	pop    %ebp
 8049515:	c3                   	ret    

08049516 <_ZNKSt14__shared_countILN9__gnu_cxx12_Lock_policyE2EE14_M_get_deleterERKSt9type_info>:
 8049516:	55                   	push   %ebp
 8049517:	89 e5                	mov    %esp,%ebp
 8049519:	83 ec 18             	sub    $0x18,%esp
 804951c:	8b 45 08             	mov    0x8(%ebp),%eax
 804951f:	8b 00                	mov    (%eax),%eax
 8049521:	85 c0                	test   %eax,%eax
 8049523:	74 1f                	je     8049544 <_ZNKSt14__shared_countILN9__gnu_cxx12_Lock_policyE2EE14_M_get_deleterERKSt9type_info+0x2e>
 8049525:	8b 45 08             	mov    0x8(%ebp),%eax
 8049528:	8b 00                	mov    (%eax),%eax
 804952a:	8b 00                	mov    (%eax),%eax
 804952c:	83 c0 10             	add    $0x10,%eax
 804952f:	8b 00                	mov    (%eax),%eax
 8049531:	8b 55 08             	mov    0x8(%ebp),%edx
 8049534:	8b 12                	mov    (%edx),%edx
 8049536:	8b 4d 0c             	mov    0xc(%ebp),%ecx
 8049539:	89 4c 24 04          	mov    %ecx,0x4(%esp)
 804953d:	89 14 24             	mov    %edx,(%esp)
 8049540:	ff d0                	call   *%eax
 8049542:	eb 05                	jmp    8049549 <_ZNKSt14__shared_countILN9__gnu_cxx12_Lock_policyE2EE14_M_get_deleterERKSt9type_info+0x33>
 8049544:	b8 00 00 00 00       	mov    $0x0,%eax
 8049549:	c9                   	leave  
 804954a:	c3                   	ret    

0804954b <_ZSt32__enable_shared_from_this_helperILN9__gnu_cxx12_Lock_policyE2EEvRKSt14__shared_countIXT_EEz>:
 804954b:	55                   	push   %ebp
 804954c:	89 e5                	mov    %esp,%ebp
 804954e:	5d                   	pop    %ebp
 804954f:	c3                   	ret    

08049550 <_ZNSaISt23_Sp_counted_ptr_inplaceINSt6thread5_ImplISt12_Bind_simpleIFPFvvEvEEEESaIS7_ELN9__gnu_cxx12_Lock_policyE2EEEC1IS7_EERKSaIT_E>:
 8049550:	55                   	push   %ebp
 8049551:	89 e5                	mov    %esp,%ebp
 8049553:	83 ec 18             	sub    $0x18,%esp
 8049556:	8b 45 08             	mov    0x8(%ebp),%eax
 8049559:	89 04 24             	mov    %eax,(%esp)
 804955c:	e8 99 00 00 00       	call   80495fa <_ZN9__gnu_cxx13new_allocatorISt23_Sp_counted_ptr_inplaceINSt6thread5_ImplISt12_Bind_simpleIFPFvvEvEEEESaIS9_ELNS_12_Lock_policyE2EEEC1Ev>
 8049561:	c9                   	leave  
 8049562:	c3                   	ret    
 8049563:	90                   	nop

08049564 <_ZNSaISt23_Sp_counted_ptr_inplaceINSt6thread5_ImplISt12_Bind_simpleIFPFvvEvEEEESaIS7_ELN9__gnu_cxx12_Lock_policyE2EEED1Ev>:
 8049564:	55                   	push   %ebp
 8049565:	89 e5                	mov    %esp,%ebp
 8049567:	83 ec 18             	sub    $0x18,%esp
 804956a:	8b 45 08             	mov    0x8(%ebp),%eax
 804956d:	89 04 24             	mov    %eax,(%esp)
 8049570:	e8 8b 00 00 00       	call   8049600 <_ZN9__gnu_cxx13new_allocatorISt23_Sp_counted_ptr_inplaceINSt6thread5_ImplISt12_Bind_simpleIFPFvvEvEEEESaIS9_ELNS_12_Lock_policyE2EEED1Ev>
 8049575:	c9                   	leave  
 8049576:	c3                   	ret    

08049577 <_ZNSt16allocator_traitsISaISt23_Sp_counted_ptr_inplaceINSt6thread5_ImplISt12_Bind_simpleIFPFvvEvEEEESaIS8_ELN9__gnu_cxx12_Lock_policyE2EEEE8allocateERSD_j>:
 8049577:	55                   	push   %ebp
 8049578:	89 e5                	mov    %esp,%ebp
 804957a:	83 ec 18             	sub    $0x18,%esp
 804957d:	c7 44 24 08 00 00 00 	movl   $0x0,0x8(%esp)
 8049584:	00 
 8049585:	8b 45 0c             	mov    0xc(%ebp),%eax
 8049588:	89 44 24 04          	mov    %eax,0x4(%esp)
 804958c:	8b 45 08             	mov    0x8(%ebp),%eax
 804958f:	89 04 24             	mov    %eax,(%esp)
 8049592:	e8 6f 00 00 00       	call   8049606 <_ZN9__gnu_cxx13new_allocatorISt23_Sp_counted_ptr_inplaceINSt6thread5_ImplISt12_Bind_simpleIFPFvvEvEEEESaIS9_ELNS_12_Lock_policyE2EEE8allocateEjPKv>
 8049597:	c9                   	leave  
 8049598:	c3                   	ret    

08049599 <_ZNSt16allocator_traitsISaISt23_Sp_counted_ptr_inplaceINSt6thread5_ImplISt12_Bind_simpleIFPFvvEvEEEESaIS8_ELN9__gnu_cxx12_Lock_policyE2EEEE9constructISC_IKS9_S7_EEEDTcl12_S_constructfp_fp0_spcl7forwardIT0_Efp1_EEERSD_PT_DpOSH_>:
 8049599:	55                   	push   %ebp
 804959a:	89 e5                	mov    %esp,%ebp
 804959c:	53                   	push   %ebx
 804959d:	83 ec 14             	sub    $0x14,%esp
 80495a0:	8b 45 14             	mov    0x14(%ebp),%eax
 80495a3:	89 04 24             	mov    %eax,(%esp)
 80495a6:	e8 48 fb ff ff       	call   80490f3 <_ZSt7forwardISt12_Bind_simpleIFPFvvEvEEEOT_RNSt16remove_referenceIS5_E4typeE>
 80495ab:	89 c3                	mov    %eax,%ebx
 80495ad:	8b 45 10             	mov    0x10(%ebp),%eax
 80495b0:	89 04 24             	mov    %eax,(%esp)
 80495b3:	e8 89 fe ff ff       	call   8049441 <_ZSt7forwardIKSaINSt6thread5_ImplISt12_Bind_simpleIFPFvvEvEEEEEEOT_RNSt16remove_referenceISA_E4typeE>
 80495b8:	89 5c 24 0c          	mov    %ebx,0xc(%esp)
 80495bc:	89 44 24 08          	mov    %eax,0x8(%esp)
 80495c0:	8b 45 0c             	mov    0xc(%ebp),%eax
 80495c3:	89 44 24 04          	mov    %eax,0x4(%esp)
 80495c7:	8b 45 08             	mov    0x8(%ebp),%eax
 80495ca:	89 04 24             	mov    %eax,(%esp)
 80495cd:	e8 64 00 00 00       	call   8049636 <_ZNSt16allocator_traitsISaISt23_Sp_counted_ptr_inplaceINSt6thread5_ImplISt12_Bind_simpleIFPFvvEvEEEESaIS8_ELN9__gnu_cxx12_Lock_policyE2EEEE12_S_constructISC_IKS9_S7_EEENSt9enable_ifIXsrNSE_18__construct_helperIT_IDpT0_EEE5valueEvE4typeERSD_PSJ_DpOSK_>
 80495d2:	83 c4 14             	add    $0x14,%esp
 80495d5:	5b                   	pop    %ebx
 80495d6:	5d                   	pop    %ebp
 80495d7:	c3                   	ret    

080495d8 <_ZNSt16allocator_traitsISaISt23_Sp_counted_ptr_inplaceINSt6thread5_ImplISt12_Bind_simpleIFPFvvEvEEEESaIS8_ELN9__gnu_cxx12_Lock_policyE2EEEE10deallocateERSD_PSC_j>:
 80495d8:	55                   	push   %ebp
 80495d9:	89 e5                	mov    %esp,%ebp
 80495db:	83 ec 18             	sub    $0x18,%esp
 80495de:	8b 45 10             	mov    0x10(%ebp),%eax
 80495e1:	89 44 24 08          	mov    %eax,0x8(%esp)
 80495e5:	8b 45 0c             	mov    0xc(%ebp),%eax
 80495e8:	89 44 24 04          	mov    %eax,0x4(%esp)
 80495ec:	8b 45 08             	mov    0x8(%ebp),%eax
 80495ef:	89 04 24             	mov    %eax,(%esp)
 80495f2:	e8 7f 00 00 00       	call   8049676 <_ZN9__gnu_cxx13new_allocatorISt23_Sp_counted_ptr_inplaceINSt6thread5_ImplISt12_Bind_simpleIFPFvvEvEEEESaIS9_ELNS_12_Lock_policyE2EEE10deallocateEPSC_j>
 80495f7:	c9                   	leave  
 80495f8:	c3                   	ret    
 80495f9:	90                   	nop

080495fa <_ZN9__gnu_cxx13new_allocatorISt23_Sp_counted_ptr_inplaceINSt6thread5_ImplISt12_Bind_simpleIFPFvvEvEEEESaIS9_ELNS_12_Lock_policyE2EEEC1Ev>:
 80495fa:	55                   	push   %ebp
 80495fb:	89 e5                	mov    %esp,%ebp
 80495fd:	5d                   	pop    %ebp
 80495fe:	c3                   	ret    
 80495ff:	90                   	nop

08049600 <_ZN9__gnu_cxx13new_allocatorISt23_Sp_counted_ptr_inplaceINSt6thread5_ImplISt12_Bind_simpleIFPFvvEvEEEESaIS9_ELNS_12_Lock_policyE2EEED1Ev>:
 8049600:	55                   	push   %ebp
 8049601:	89 e5                	mov    %esp,%ebp
 8049603:	5d                   	pop    %ebp
 8049604:	c3                   	ret    
 8049605:	90                   	nop

08049606 <_ZN9__gnu_cxx13new_allocatorISt23_Sp_counted_ptr_inplaceINSt6thread5_ImplISt12_Bind_simpleIFPFvvEvEEEESaIS9_ELNS_12_Lock_policyE2EEE8allocateEjPKv>:
 8049606:	55                   	push   %ebp
 8049607:	89 e5                	mov    %esp,%ebp
 8049609:	83 ec 18             	sub    $0x18,%esp
 804960c:	8b 45 08             	mov    0x8(%ebp),%eax
 804960f:	89 04 24             	mov    %eax,(%esp)
 8049612:	e8 73 00 00 00       	call   804968a <_ZNK9__gnu_cxx13new_allocatorISt23_Sp_counted_ptr_inplaceINSt6thread5_ImplISt12_Bind_simpleIFPFvvEvEEEESaIS9_ELNS_12_Lock_policyE2EEE8max_sizeEv>
 8049617:	3b 45 0c             	cmp    0xc(%ebp),%eax
 804961a:	0f 92 c0             	setb   %al
 804961d:	84 c0                	test   %al,%al
 804961f:	74 05                	je     8049626 <_ZN9__gnu_cxx13new_allocatorISt23_Sp_counted_ptr_inplaceINSt6thread5_ImplISt12_Bind_simpleIFPFvvEvEEEESaIS9_ELNS_12_Lock_policyE2EEE8allocateEjPKv+0x20>
 8049621:	e8 2a f2 ff ff       	call   8048850 <_ZSt17__throw_bad_allocv@plt>
 8049626:	8b 45 0c             	mov    0xc(%ebp),%eax
 8049629:	c1 e0 05             	shl    $0x5,%eax
 804962c:	89 04 24             	mov    %eax,(%esp)
 804962f:	e8 fc f1 ff ff       	call   8048830 <_Znwj@plt>
 8049634:	c9                   	leave  
 8049635:	c3                   	ret    

08049636 <_ZNSt16allocator_traitsISaISt23_Sp_counted_ptr_inplaceINSt6thread5_ImplISt12_Bind_simpleIFPFvvEvEEEESaIS8_ELN9__gnu_cxx12_Lock_policyE2EEEE12_S_constructISC_IKS9_S7_EEENSt9enable_ifIXsrNSE_18__construct_helperIT_IDpT0_EEE5valueEvE4typeERSD_PSJ_DpOSK_>:
 8049636:	55                   	push   %ebp
 8049637:	89 e5                	mov    %esp,%ebp
 8049639:	53                   	push   %ebx
 804963a:	83 ec 14             	sub    $0x14,%esp
 804963d:	8b 45 14             	mov    0x14(%ebp),%eax
 8049640:	89 04 24             	mov    %eax,(%esp)
 8049643:	e8 ab fa ff ff       	call   80490f3 <_ZSt7forwardISt12_Bind_simpleIFPFvvEvEEEOT_RNSt16remove_referenceIS5_E4typeE>
 8049648:	89 c3                	mov    %eax,%ebx
 804964a:	8b 45 10             	mov    0x10(%ebp),%eax
 804964d:	89 04 24             	mov    %eax,(%esp)
 8049650:	e8 ec fd ff ff       	call   8049441 <_ZSt7forwardIKSaINSt6thread5_ImplISt12_Bind_simpleIFPFvvEvEEEEEEOT_RNSt16remove_referenceISA_E4typeE>
 8049655:	89 5c 24 0c          	mov    %ebx,0xc(%esp)
 8049659:	89 44 24 08          	mov    %eax,0x8(%esp)
 804965d:	8b 45 0c             	mov    0xc(%ebp),%eax
 8049660:	89 44 24 04          	mov    %eax,0x4(%esp)
 8049664:	8b 45 08             	mov    0x8(%ebp),%eax
 8049667:	89 04 24             	mov    %eax,(%esp)
 804966a:	e8 25 00 00 00       	call   8049694 <_ZN9__gnu_cxx13new_allocatorISt23_Sp_counted_ptr_inplaceINSt6thread5_ImplISt12_Bind_simpleIFPFvvEvEEEESaIS9_ELNS_12_Lock_policyE2EEE9constructISC_IKSA_S8_EEEvPT_DpOT0_>
 804966f:	83 c4 14             	add    $0x14,%esp
 8049672:	5b                   	pop    %ebx
 8049673:	5d                   	pop    %ebp
 8049674:	c3                   	ret    
 8049675:	90                   	nop

08049676 <_ZN9__gnu_cxx13new_allocatorISt23_Sp_counted_ptr_inplaceINSt6thread5_ImplISt12_Bind_simpleIFPFvvEvEEEESaIS9_ELNS_12_Lock_policyE2EEE10deallocateEPSC_j>:
 8049676:	55                   	push   %ebp
 8049677:	89 e5                	mov    %esp,%ebp
 8049679:	83 ec 18             	sub    $0x18,%esp
 804967c:	8b 45 0c             	mov    0xc(%ebp),%eax
 804967f:	89 04 24             	mov    %eax,(%esp)
 8049682:	e8 19 f1 ff ff       	call   80487a0 <_ZdlPv@plt>
 8049687:	c9                   	leave  
 8049688:	c3                   	ret    
 8049689:	90                   	nop

0804968a <_ZNK9__gnu_cxx13new_allocatorISt23_Sp_counted_ptr_inplaceINSt6thread5_ImplISt12_Bind_simpleIFPFvvEvEEEESaIS9_ELNS_12_Lock_policyE2EEE8max_sizeEv>:
 804968a:	55                   	push   %ebp
 804968b:	89 e5                	mov    %esp,%ebp
 804968d:	b8 ff ff ff 07       	mov    $0x7ffffff,%eax
 8049692:	5d                   	pop    %ebp
 8049693:	c3                   	ret    

08049694 <_ZN9__gnu_cxx13new_allocatorISt23_Sp_counted_ptr_inplaceINSt6thread5_ImplISt12_Bind_simpleIFPFvvEvEEEESaIS9_ELNS_12_Lock_policyE2EEE9constructISC_IKSA_S8_EEEvPT_DpOT0_>:
 8049694:	55                   	push   %ebp
 8049695:	89 e5                	mov    %esp,%ebp
 8049697:	57                   	push   %edi
 8049698:	56                   	push   %esi
 8049699:	53                   	push   %ebx
 804969a:	83 ec 2c             	sub    $0x2c,%esp
 804969d:	8b 45 10             	mov    0x10(%ebp),%eax
 80496a0:	89 04 24             	mov    %eax,(%esp)
 80496a3:	e8 99 fd ff ff       	call   8049441 <_ZSt7forwardIKSaINSt6thread5_ImplISt12_Bind_simpleIFPFvvEvEEEEEEOT_RNSt16remove_referenceISA_E4typeE>
 80496a8:	89 44 24 04          	mov    %eax,0x4(%esp)
 80496ac:	8d 45 e7             	lea    -0x19(%ebp),%eax
 80496af:	89 04 24             	mov    %eax,(%esp)
 80496b2:	e8 79 00 00 00       	call   8049730 <_ZNSaINSt6thread5_ImplISt12_Bind_simpleIFPFvvEvEEEEEC1ERKS7_>
 80496b7:	8d 45 e7             	lea    -0x19(%ebp),%eax
 80496ba:	89 45 d4             	mov    %eax,-0x2c(%ebp)
 80496bd:	8b 45 14             	mov    0x14(%ebp),%eax
 80496c0:	89 04 24             	mov    %eax,(%esp)
 80496c3:	e8 2b fa ff ff       	call   80490f3 <_ZSt7forwardISt12_Bind_simpleIFPFvvEvEEEOT_RNSt16remove_referenceIS5_E4typeE>
 80496c8:	89 c7                	mov    %eax,%edi
 80496ca:	8b 75 0c             	mov    0xc(%ebp),%esi
 80496cd:	89 74 24 04          	mov    %esi,0x4(%esp)
 80496d1:	c7 04 24 20 00 00 00 	movl   $0x20,(%esp)
 80496d8:	e8 da f5 ff ff       	call   8048cb7 <_ZnwjPv>
 80496dd:	89 c3                	mov    %eax,%ebx
 80496df:	85 db                	test   %ebx,%ebx
 80496e1:	74 13                	je     80496f6 <_ZN9__gnu_cxx13new_allocatorISt23_Sp_counted_ptr_inplaceINSt6thread5_ImplISt12_Bind_simpleIFPFvvEvEEEESaIS9_ELNS_12_Lock_policyE2EEE9constructISC_IKSA_S8_EEEvPT_DpOT0_+0x62>
 80496e3:	89 7c 24 08          	mov    %edi,0x8(%esp)
 80496e7:	8b 45 d4             	mov    -0x2c(%ebp),%eax
 80496ea:	89 44 24 04          	mov    %eax,0x4(%esp)
 80496ee:	89 1c 24             	mov    %ebx,(%esp)
 80496f1:	e8 68 00 00 00       	call   804975e <_ZNSt23_Sp_counted_ptr_inplaceINSt6thread5_ImplISt12_Bind_simpleIFPFvvEvEEEESaIS7_ELN9__gnu_cxx12_Lock_policyE2EEC1IIS6_EEES8_DpOT_>
 80496f6:	8d 45 e7             	lea    -0x19(%ebp),%eax
 80496f9:	89 04 24             	mov    %eax,(%esp)
 80496fc:	e8 07 fc ff ff       	call   8049308 <_ZNSaINSt6thread5_ImplISt12_Bind_simpleIFPFvvEvEEEEED1Ev>
 8049701:	eb 25                	jmp    8049728 <_ZN9__gnu_cxx13new_allocatorISt23_Sp_counted_ptr_inplaceINSt6thread5_ImplISt12_Bind_simpleIFPFvvEvEEEESaIS9_ELNS_12_Lock_policyE2EEE9constructISC_IKSA_S8_EEEvPT_DpOT0_+0x94>
 8049703:	89 c7                	mov    %eax,%edi
 8049705:	89 74 24 04          	mov    %esi,0x4(%esp)
 8049709:	89 1c 24             	mov    %ebx,(%esp)
 804970c:	e8 ae f5 ff ff       	call   8048cbf <_ZdlPvS_>
 8049711:	89 fb                	mov    %edi,%ebx
 8049713:	8d 45 e7             	lea    -0x19(%ebp),%eax
 8049716:	89 04 24             	mov    %eax,(%esp)
 8049719:	e8 ea fb ff ff       	call   8049308 <_ZNSaINSt6thread5_ImplISt12_Bind_simpleIFPFvvEvEEEEED1Ev>
 804971e:	89 d8                	mov    %ebx,%eax
 8049720:	89 04 24             	mov    %eax,(%esp)
 8049723:	e8 68 f1 ff ff       	call   8048890 <_Unwind_Resume@plt>
 8049728:	83 c4 2c             	add    $0x2c,%esp
 804972b:	5b                   	pop    %ebx
 804972c:	5e                   	pop    %esi
 804972d:	5f                   	pop    %edi
 804972e:	5d                   	pop    %ebp
 804972f:	c3                   	ret    

08049730 <_ZNSaINSt6thread5_ImplISt12_Bind_simpleIFPFvvEvEEEEEC1ERKS7_>:
 8049730:	55                   	push   %ebp
 8049731:	89 e5                	mov    %esp,%ebp
 8049733:	83 ec 18             	sub    $0x18,%esp
 8049736:	8b 45 0c             	mov    0xc(%ebp),%eax
 8049739:	89 44 24 04          	mov    %eax,0x4(%esp)
 804973d:	8b 45 08             	mov    0x8(%ebp),%eax
 8049740:	89 04 24             	mov    %eax,(%esp)
 8049743:	e8 c0 00 00 00       	call   8049808 <_ZN9__gnu_cxx13new_allocatorINSt6thread5_ImplISt12_Bind_simpleIFPFvvEvEEEEEC1ERKS9_>
 8049748:	c9                   	leave  
 8049749:	c3                   	ret    

0804974a <_ZNSt23_Sp_counted_ptr_inplaceINSt6thread5_ImplISt12_Bind_simpleIFPFvvEvEEEESaIS7_ELN9__gnu_cxx12_Lock_policyE2EE5_ImplD1Ev>:
 804974a:	55                   	push   %ebp
 804974b:	89 e5                	mov    %esp,%ebp
 804974d:	83 ec 18             	sub    $0x18,%esp
 8049750:	8b 45 08             	mov    0x8(%ebp),%eax
 8049753:	89 04 24             	mov    %eax,(%esp)
 8049756:	e8 ad fb ff ff       	call   8049308 <_ZNSaINSt6thread5_ImplISt12_Bind_simpleIFPFvvEvEEEEED1Ev>
 804975b:	c9                   	leave  
 804975c:	c3                   	ret    
 804975d:	90                   	nop

0804975e <_ZNSt23_Sp_counted_ptr_inplaceINSt6thread5_ImplISt12_Bind_simpleIFPFvvEvEEEESaIS7_ELN9__gnu_cxx12_Lock_policyE2EEC1IIS6_EEES8_DpOT_>:
 804975e:	55                   	push   %ebp
 804975f:	89 e5                	mov    %esp,%ebp
 8049761:	53                   	push   %ebx
 8049762:	83 ec 24             	sub    $0x24,%esp
 8049765:	8b 45 08             	mov    0x8(%ebp),%eax
 8049768:	89 04 24             	mov    %eax,(%esp)
 804976b:	e8 a4 00 00 00       	call   8049814 <_ZNSt16_Sp_counted_baseILN9__gnu_cxx12_Lock_policyE2EEC1Ev>
 8049770:	8b 45 08             	mov    0x8(%ebp),%eax
 8049773:	c7 00 88 9c 04 08    	movl   $0x8049c88,(%eax)
 8049779:	8b 45 0c             	mov    0xc(%ebp),%eax
 804977c:	89 44 24 04          	mov    %eax,0x4(%esp)
 8049780:	8d 45 f7             	lea    -0x9(%ebp),%eax
 8049783:	89 04 24             	mov    %eax,(%esp)
 8049786:	e8 a5 ff ff ff       	call   8049730 <_ZNSaINSt6thread5_ImplISt12_Bind_simpleIFPFvvEvEEEEEC1ERKS7_>
 804978b:	8b 45 08             	mov    0x8(%ebp),%eax
 804978e:	8d 50 0c             	lea    0xc(%eax),%edx
 8049791:	8d 45 f7             	lea    -0x9(%ebp),%eax
 8049794:	89 44 24 04          	mov    %eax,0x4(%esp)
 8049798:	89 14 24             	mov    %edx,(%esp)
 804979b:	e8 a4 00 00 00       	call   8049844 <_ZNSt23_Sp_counted_ptr_inplaceINSt6thread5_ImplISt12_Bind_simpleIFPFvvEvEEEESaIS7_ELN9__gnu_cxx12_Lock_policyE2EE5_ImplC1ES8_>
 80497a0:	8d 45 f7             	lea    -0x9(%ebp),%eax
 80497a3:	89 04 24             	mov    %eax,(%esp)
 80497a6:	e8 5d fb ff ff       	call   8049308 <_ZNSaINSt6thread5_ImplISt12_Bind_simpleIFPFvvEvEEEEED1Ev>
 80497ab:	8b 45 08             	mov    0x8(%ebp),%eax
 80497ae:	8d 50 10             	lea    0x10(%eax),%edx
 80497b1:	8b 45 08             	mov    0x8(%ebp),%eax
 80497b4:	89 50 0c             	mov    %edx,0xc(%eax)
 80497b7:	8b 45 10             	mov    0x10(%ebp),%eax
 80497ba:	89 04 24             	mov    %eax,(%esp)
 80497bd:	e8 31 f9 ff ff       	call   80490f3 <_ZSt7forwardISt12_Bind_simpleIFPFvvEvEEEOT_RNSt16remove_referenceIS5_E4typeE>
 80497c2:	8b 55 08             	mov    0x8(%ebp),%edx
 80497c5:	8b 52 0c             	mov    0xc(%edx),%edx
 80497c8:	89 44 24 08          	mov    %eax,0x8(%esp)
 80497cc:	89 54 24 04          	mov    %edx,0x4(%esp)
 80497d0:	8b 45 0c             	mov    0xc(%ebp),%eax
 80497d3:	89 04 24             	mov    %eax,(%esp)
 80497d6:	e8 8c 00 00 00       	call   8049867 <_ZNSt16allocator_traitsISaINSt6thread5_ImplISt12_Bind_simpleIFPFvvEvEEEEEE9constructIS7_IS6_EEEDTcl12_S_constructfp_fp0_spcl7forwardIT0_Efp1_EEERS8_PT_DpOSB_>
 80497db:	eb 25                	jmp    8049802 <_ZNSt23_Sp_counted_ptr_inplaceINSt6thread5_ImplISt12_Bind_simpleIFPFvvEvEEEESaIS7_ELN9__gnu_cxx12_Lock_policyE2EEC1IIS6_EEES8_DpOT_+0xa4>
 80497dd:	89 c3                	mov    %eax,%ebx
 80497df:	8b 45 08             	mov    0x8(%ebp),%eax
 80497e2:	83 c0 0c             	add    $0xc,%eax
 80497e5:	89 04 24             	mov    %eax,(%esp)
 80497e8:	e8 5d ff ff ff       	call   804974a <_ZNSt23_Sp_counted_ptr_inplaceINSt6thread5_ImplISt12_Bind_simpleIFPFvvEvEEEESaIS7_ELN9__gnu_cxx12_Lock_policyE2EE5_ImplD1Ev>
 80497ed:	8b 45 08             	mov    0x8(%ebp),%eax
 80497f0:	89 04 24             	mov    %eax,(%esp)
 80497f3:	e8 b8 fa ff ff       	call   80492b0 <_ZNSt16_Sp_counted_baseILN9__gnu_cxx12_Lock_policyE2EED1Ev>
 80497f8:	89 d8                	mov    %ebx,%eax
 80497fa:	89 04 24             	mov    %eax,(%esp)
 80497fd:	e8 8e f0 ff ff       	call   8048890 <_Unwind_Resume@plt>
 8049802:	83 c4 24             	add    $0x24,%esp
 8049805:	5b                   	pop    %ebx
 8049806:	5d                   	pop    %ebp
 8049807:	c3                   	ret    

08049808 <_ZN9__gnu_cxx13new_allocatorINSt6thread5_ImplISt12_Bind_simpleIFPFvvEvEEEEEC1ERKS9_>:
 8049808:	55                   	push   %ebp
 8049809:	89 e5                	mov    %esp,%ebp
 804980b:	5d                   	pop    %ebp
 804980c:	c3                   	ret    
 804980d:	90                   	nop

0804980e <_ZNSt11_Mutex_baseILN9__gnu_cxx12_Lock_policyE2EEC1Ev>:
 804980e:	55                   	push   %ebp
 804980f:	89 e5                	mov    %esp,%ebp
 8049811:	5d                   	pop    %ebp
 8049812:	c3                   	ret    
 8049813:	90                   	nop

08049814 <_ZNSt16_Sp_counted_baseILN9__gnu_cxx12_Lock_policyE2EEC1Ev>:
 8049814:	55                   	push   %ebp
 8049815:	89 e5                	mov    %esp,%ebp
 8049817:	83 ec 18             	sub    $0x18,%esp
 804981a:	8b 45 08             	mov    0x8(%ebp),%eax
 804981d:	89 04 24             	mov    %eax,(%esp)
 8049820:	e8 e9 ff ff ff       	call   804980e <_ZNSt11_Mutex_baseILN9__gnu_cxx12_Lock_policyE2EEC1Ev>
 8049825:	8b 45 08             	mov    0x8(%ebp),%eax
 8049828:	c7 00 d8 9c 04 08    	movl   $0x8049cd8,(%eax)
 804982e:	8b 45 08             	mov    0x8(%ebp),%eax
 8049831:	c7 40 04 01 00 00 00 	movl   $0x1,0x4(%eax)
 8049838:	8b 45 08             	mov    0x8(%ebp),%eax
 804983b:	c7 40 08 01 00 00 00 	movl   $0x1,0x8(%eax)
 8049842:	c9                   	leave  
 8049843:	c3                   	ret    

08049844 <_ZNSt23_Sp_counted_ptr_inplaceINSt6thread5_ImplISt12_Bind_simpleIFPFvvEvEEEESaIS7_ELN9__gnu_cxx12_Lock_policyE2EE5_ImplC1ES8_>:
 8049844:	55                   	push   %ebp
 8049845:	89 e5                	mov    %esp,%ebp
 8049847:	83 ec 18             	sub    $0x18,%esp
 804984a:	8b 45 0c             	mov    0xc(%ebp),%eax
 804984d:	89 44 24 04          	mov    %eax,0x4(%esp)
 8049851:	8b 45 08             	mov    0x8(%ebp),%eax
 8049854:	89 04 24             	mov    %eax,(%esp)
 8049857:	e8 d4 fe ff ff       	call   8049730 <_ZNSaINSt6thread5_ImplISt12_Bind_simpleIFPFvvEvEEEEEC1ERKS7_>
 804985c:	8b 45 08             	mov    0x8(%ebp),%eax
 804985f:	c7 00 00 00 00 00    	movl   $0x0,(%eax)
 8049865:	c9                   	leave  
 8049866:	c3                   	ret    

08049867 <_ZNSt16allocator_traitsISaINSt6thread5_ImplISt12_Bind_simpleIFPFvvEvEEEEEE9constructIS7_IS6_EEEDTcl12_S_constructfp_fp0_spcl7forwardIT0_Efp1_EEERS8_PT_DpOSB_>:
 8049867:	55                   	push   %ebp
 8049868:	89 e5                	mov    %esp,%ebp
 804986a:	83 ec 18             	sub    $0x18,%esp
 804986d:	8b 45 10             	mov    0x10(%ebp),%eax
 8049870:	89 04 24             	mov    %eax,(%esp)
 8049873:	e8 7b f8 ff ff       	call   80490f3 <_ZSt7forwardISt12_Bind_simpleIFPFvvEvEEEOT_RNSt16remove_referenceIS5_E4typeE>
 8049878:	89 44 24 08          	mov    %eax,0x8(%esp)
 804987c:	8b 45 0c             	mov    0xc(%ebp),%eax
 804987f:	89 44 24 04          	mov    %eax,0x4(%esp)
 8049883:	8b 45 08             	mov    0x8(%ebp),%eax
 8049886:	89 04 24             	mov    %eax,(%esp)
 8049889:	e8 02 00 00 00       	call   8049890 <_ZNSt16allocator_traitsISaINSt6thread5_ImplISt12_Bind_simpleIFPFvvEvEEEEEE12_S_constructIS7_IS6_EEENSt9enable_ifIXsrNS9_18__construct_helperIT_IDpT0_EEE5valueEvE4typeERS8_PSD_DpOSE_>
 804988e:	c9                   	leave  
 804988f:	c3                   	ret    

08049890 <_ZNSt16allocator_traitsISaINSt6thread5_ImplISt12_Bind_simpleIFPFvvEvEEEEEE12_S_constructIS7_IS6_EEENSt9enable_ifIXsrNS9_18__construct_helperIT_IDpT0_EEE5valueEvE4typeERS8_PSD_DpOSE_>:
 8049890:	55                   	push   %ebp
 8049891:	89 e5                	mov    %esp,%ebp
 8049893:	83 ec 18             	sub    $0x18,%esp
 8049896:	8b 45 10             	mov    0x10(%ebp),%eax
 8049899:	89 04 24             	mov    %eax,(%esp)
 804989c:	e8 52 f8 ff ff       	call   80490f3 <_ZSt7forwardISt12_Bind_simpleIFPFvvEvEEEOT_RNSt16remove_referenceIS5_E4typeE>
 80498a1:	89 44 24 08          	mov    %eax,0x8(%esp)
 80498a5:	8b 45 0c             	mov    0xc(%ebp),%eax
 80498a8:	89 44 24 04          	mov    %eax,0x4(%esp)
 80498ac:	8b 45 08             	mov    0x8(%ebp),%eax
 80498af:	89 04 24             	mov    %eax,(%esp)
 80498b2:	e8 03 00 00 00       	call   80498ba <_ZN9__gnu_cxx13new_allocatorINSt6thread5_ImplISt12_Bind_simpleIFPFvvEvEEEEE9constructIS8_IS7_EEEvPT_DpOT0_>
 80498b7:	c9                   	leave  
 80498b8:	c3                   	ret    
 80498b9:	90                   	nop

080498ba <_ZN9__gnu_cxx13new_allocatorINSt6thread5_ImplISt12_Bind_simpleIFPFvvEvEEEEE9constructIS8_IS7_EEEvPT_DpOT0_>:
 80498ba:	55                   	push   %ebp
 80498bb:	89 e5                	mov    %esp,%ebp
 80498bd:	53                   	push   %ebx
 80498be:	83 ec 14             	sub    $0x14,%esp
 80498c1:	8b 45 10             	mov    0x10(%ebp),%eax
 80498c4:	89 04 24             	mov    %eax,(%esp)
 80498c7:	e8 27 f8 ff ff       	call   80490f3 <_ZSt7forwardISt12_Bind_simpleIFPFvvEvEEEOT_RNSt16remove_referenceIS5_E4typeE>
 80498cc:	89 c3                	mov    %eax,%ebx
 80498ce:	8b 45 0c             	mov    0xc(%ebp),%eax
 80498d1:	89 44 24 04          	mov    %eax,0x4(%esp)
 80498d5:	c7 04 24 10 00 00 00 	movl   $0x10,(%esp)
 80498dc:	e8 d6 f3 ff ff       	call   8048cb7 <_ZnwjPv>
 80498e1:	85 c0                	test   %eax,%eax
 80498e3:	74 0c                	je     80498f1 <_ZN9__gnu_cxx13new_allocatorINSt6thread5_ImplISt12_Bind_simpleIFPFvvEvEEEEE9constructIS8_IS7_EEEvPT_DpOT0_+0x37>
 80498e5:	89 5c 24 04          	mov    %ebx,0x4(%esp)
 80498e9:	89 04 24             	mov    %eax,(%esp)
 80498ec:	e8 29 00 00 00       	call   804991a <_ZNSt6thread5_ImplISt12_Bind_simpleIFPFvvEvEEEC1EOS5_>
 80498f1:	83 c4 14             	add    $0x14,%esp
 80498f4:	5b                   	pop    %ebx
 80498f5:	5d                   	pop    %ebp
 80498f6:	c3                   	ret    
 80498f7:	90                   	nop

080498f8 <_ZNSt6thread10_Impl_baseC1Ev>:
 80498f8:	55                   	push   %ebp
 80498f9:	89 e5                	mov    %esp,%ebp
 80498fb:	8b 45 08             	mov    0x8(%ebp),%eax
 80498fe:	c7 00 c0 9c 04 08    	movl   $0x8049cc0,(%eax)
 8049904:	8b 45 08             	mov    0x8(%ebp),%eax
 8049907:	c7 40 04 00 00 00 00 	movl   $0x0,0x4(%eax)
 804990e:	8b 45 08             	mov    0x8(%ebp),%eax
 8049911:	c7 40 08 00 00 00 00 	movl   $0x0,0x8(%eax)
 8049918:	5d                   	pop    %ebp
 8049919:	c3                   	ret    

0804991a <_ZNSt6thread5_ImplISt12_Bind_simpleIFPFvvEvEEEC1EOS5_>:
 804991a:	55                   	push   %ebp
 804991b:	89 e5                	mov    %esp,%ebp
 804991d:	83 ec 18             	sub    $0x18,%esp
 8049920:	8b 45 08             	mov    0x8(%ebp),%eax
 8049923:	89 04 24             	mov    %eax,(%esp)
 8049926:	e8 cd ff ff ff       	call   80498f8 <_ZNSt6thread10_Impl_baseC1Ev>
 804992b:	8b 45 08             	mov    0x8(%ebp),%eax
 804992e:	c7 00 a8 9c 04 08    	movl   $0x8049ca8,(%eax)
 8049934:	8b 45 0c             	mov    0xc(%ebp),%eax
 8049937:	89 04 24             	mov    %eax,(%esp)
 804993a:	e8 b4 f7 ff ff       	call   80490f3 <_ZSt7forwardISt12_Bind_simpleIFPFvvEvEEEOT_RNSt16remove_referenceIS5_E4typeE>
 804993f:	8b 55 08             	mov    0x8(%ebp),%edx
 8049942:	83 c2 0c             	add    $0xc,%edx
 8049945:	89 44 24 04          	mov    %eax,0x4(%esp)
 8049949:	89 14 24             	mov    %edx,(%esp)
 804994c:	e8 53 f7 ff ff       	call   80490a4 <_ZNSt12_Bind_simpleIFPFvvEvEEC1EOS3_>
 8049951:	c9                   	leave  
 8049952:	c3                   	ret    
 8049953:	90                   	nop

08049954 <_ZNSt6thread5_ImplISt12_Bind_simpleIFPFvvEvEEED1Ev>:
 8049954:	55                   	push   %ebp
 8049955:	89 e5                	mov    %esp,%ebp
 8049957:	83 ec 18             	sub    $0x18,%esp
 804995a:	8b 45 08             	mov    0x8(%ebp),%eax
 804995d:	c7 00 a8 9c 04 08    	movl   $0x8049ca8,(%eax)
 8049963:	8b 45 08             	mov    0x8(%ebp),%eax
 8049966:	89 04 24             	mov    %eax,(%esp)
 8049969:	e8 f4 f3 ff ff       	call   8048d62 <_ZNSt6thread10_Impl_baseD1Ev>
 804996e:	b8 00 00 00 00       	mov    $0x0,%eax
 8049973:	85 c0                	test   %eax,%eax
 8049975:	74 0b                	je     8049982 <_ZNSt6thread5_ImplISt12_Bind_simpleIFPFvvEvEEED1Ev+0x2e>
 8049977:	8b 45 08             	mov    0x8(%ebp),%eax
 804997a:	89 04 24             	mov    %eax,(%esp)
 804997d:	e8 1e ee ff ff       	call   80487a0 <_ZdlPv@plt>
 8049982:	c9                   	leave  
 8049983:	c3                   	ret    

08049984 <_ZNSt6thread5_ImplISt12_Bind_simpleIFPFvvEvEEED0Ev>:
 8049984:	55                   	push   %ebp
 8049985:	89 e5                	mov    %esp,%ebp
 8049987:	83 ec 18             	sub    $0x18,%esp
 804998a:	8b 45 08             	mov    0x8(%ebp),%eax
 804998d:	89 04 24             	mov    %eax,(%esp)
 8049990:	e8 bf ff ff ff       	call   8049954 <_ZNSt6thread5_ImplISt12_Bind_simpleIFPFvvEvEEED1Ev>
 8049995:	8b 45 08             	mov    0x8(%ebp),%eax
 8049998:	89 04 24             	mov    %eax,(%esp)
 804999b:	e8 00 ee ff ff       	call   80487a0 <_ZdlPv@plt>
 80499a0:	c9                   	leave  
 80499a1:	c3                   	ret    

080499a2 <_ZNSt23_Sp_counted_ptr_inplaceINSt6thread5_ImplISt12_Bind_simpleIFPFvvEvEEEESaIS7_ELN9__gnu_cxx12_Lock_policyE2EED1Ev>:
 80499a2:	55                   	push   %ebp
 80499a3:	89 e5                	mov    %esp,%ebp
 80499a5:	83 ec 18             	sub    $0x18,%esp
 80499a8:	8b 45 08             	mov    0x8(%ebp),%eax
 80499ab:	c7 00 88 9c 04 08    	movl   $0x8049c88,(%eax)
 80499b1:	8b 45 08             	mov    0x8(%ebp),%eax
 80499b4:	83 c0 0c             	add    $0xc,%eax
 80499b7:	89 04 24             	mov    %eax,(%esp)
 80499ba:	e8 8b fd ff ff       	call   804974a <_ZNSt23_Sp_counted_ptr_inplaceINSt6thread5_ImplISt12_Bind_simpleIFPFvvEvEEEESaIS7_ELN9__gnu_cxx12_Lock_policyE2EE5_ImplD1Ev>
 80499bf:	8b 45 08             	mov    0x8(%ebp),%eax
 80499c2:	89 04 24             	mov    %eax,(%esp)
 80499c5:	e8 e6 f8 ff ff       	call   80492b0 <_ZNSt16_Sp_counted_baseILN9__gnu_cxx12_Lock_policyE2EED1Ev>
 80499ca:	b8 00 00 00 00       	mov    $0x0,%eax
 80499cf:	85 c0                	test   %eax,%eax
 80499d1:	74 0b                	je     80499de <_ZNSt23_Sp_counted_ptr_inplaceINSt6thread5_ImplISt12_Bind_simpleIFPFvvEvEEEESaIS7_ELN9__gnu_cxx12_Lock_policyE2EED1Ev+0x3c>
 80499d3:	8b 45 08             	mov    0x8(%ebp),%eax
 80499d6:	89 04 24             	mov    %eax,(%esp)
 80499d9:	e8 c2 ed ff ff       	call   80487a0 <_ZdlPv@plt>
 80499de:	c9                   	leave  
 80499df:	c3                   	ret    

080499e0 <_ZNSt23_Sp_counted_ptr_inplaceINSt6thread5_ImplISt12_Bind_simpleIFPFvvEvEEEESaIS7_ELN9__gnu_cxx12_Lock_policyE2EED0Ev>:
 80499e0:	55                   	push   %ebp
 80499e1:	89 e5                	mov    %esp,%ebp
 80499e3:	83 ec 18             	sub    $0x18,%esp
 80499e6:	8b 45 08             	mov    0x8(%ebp),%eax
 80499e9:	89 04 24             	mov    %eax,(%esp)
 80499ec:	e8 b1 ff ff ff       	call   80499a2 <_ZNSt23_Sp_counted_ptr_inplaceINSt6thread5_ImplISt12_Bind_simpleIFPFvvEvEEEESaIS7_ELN9__gnu_cxx12_Lock_policyE2EED1Ev>
 80499f1:	8b 45 08             	mov    0x8(%ebp),%eax
 80499f4:	89 04 24             	mov    %eax,(%esp)
 80499f7:	e8 a4 ed ff ff       	call   80487a0 <_ZdlPv@plt>
 80499fc:	c9                   	leave  
 80499fd:	c3                   	ret    

080499fe <_ZNSt23_Sp_counted_ptr_inplaceINSt6thread5_ImplISt12_Bind_simpleIFPFvvEvEEEESaIS7_ELN9__gnu_cxx12_Lock_policyE2EE10_M_disposeEv>:
 80499fe:	55                   	push   %ebp
 80499ff:	89 e5                	mov    %esp,%ebp
 8049a01:	83 ec 18             	sub    $0x18,%esp
 8049a04:	8b 45 08             	mov    0x8(%ebp),%eax
 8049a07:	8b 40 0c             	mov    0xc(%eax),%eax
 8049a0a:	8b 55 08             	mov    0x8(%ebp),%edx
 8049a0d:	83 c2 0c             	add    $0xc,%edx
 8049a10:	89 44 24 04          	mov    %eax,0x4(%esp)
 8049a14:	89 14 24             	mov    %edx,(%esp)
 8049a17:	e8 98 00 00 00       	call   8049ab4 <_ZNSt16allocator_traitsISaINSt6thread5_ImplISt12_Bind_simpleIFPFvvEvEEEEEE7destroyIS7_EEvRS8_PT_>
 8049a1c:	c9                   	leave  
 8049a1d:	c3                   	ret    

08049a1e <_ZNSt23_Sp_counted_ptr_inplaceINSt6thread5_ImplISt12_Bind_simpleIFPFvvEvEEEESaIS7_ELN9__gnu_cxx12_Lock_policyE2EE10_M_destroyEv>:
 8049a1e:	55                   	push   %ebp
 8049a1f:	89 e5                	mov    %esp,%ebp
 8049a21:	83 ec 28             	sub    $0x28,%esp
 8049a24:	8b 45 08             	mov    0x8(%ebp),%eax
 8049a27:	83 c0 0c             	add    $0xc,%eax
 8049a2a:	89 44 24 04          	mov    %eax,0x4(%esp)
 8049a2e:	8d 45 f7             	lea    -0x9(%ebp),%eax
 8049a31:	89 04 24             	mov    %eax,(%esp)
 8049a34:	e8 17 fb ff ff       	call   8049550 <_ZNSaISt23_Sp_counted_ptr_inplaceINSt6thread5_ImplISt12_Bind_simpleIFPFvvEvEEEESaIS7_ELN9__gnu_cxx12_Lock_policyE2EEEC1IS7_EERKSaIT_E>
 8049a39:	8b 45 08             	mov    0x8(%ebp),%eax
 8049a3c:	89 44 24 04          	mov    %eax,0x4(%esp)
 8049a40:	8d 45 f7             	lea    -0x9(%ebp),%eax
 8049a43:	89 04 24             	mov    %eax,(%esp)
 8049a46:	e8 83 00 00 00       	call   8049ace <_ZNSt16allocator_traitsISaISt23_Sp_counted_ptr_inplaceINSt6thread5_ImplISt12_Bind_simpleIFPFvvEvEEEESaIS8_ELN9__gnu_cxx12_Lock_policyE2EEEE7destroyISC_EEvRSD_PT_>
 8049a4b:	c7 44 24 08 01 00 00 	movl   $0x1,0x8(%esp)
 8049a52:	00 
 8049a53:	8b 45 08             	mov    0x8(%ebp),%eax
 8049a56:	89 44 24 04          	mov    %eax,0x4(%esp)
 8049a5a:	8d 45 f7             	lea    -0x9(%ebp),%eax
 8049a5d:	89 04 24             	mov    %eax,(%esp)
 8049a60:	e8 73 fb ff ff       	call   80495d8 <_ZNSt16allocator_traitsISaISt23_Sp_counted_ptr_inplaceINSt6thread5_ImplISt12_Bind_simpleIFPFvvEvEEEESaIS8_ELN9__gnu_cxx12_Lock_policyE2EEEE10deallocateERSD_PSC_j>
 8049a65:	8d 45 f7             	lea    -0x9(%ebp),%eax
 8049a68:	89 04 24             	mov    %eax,(%esp)
 8049a6b:	e8 f4 fa ff ff       	call   8049564 <_ZNSaISt23_Sp_counted_ptr_inplaceINSt6thread5_ImplISt12_Bind_simpleIFPFvvEvEEEESaIS7_ELN9__gnu_cxx12_Lock_policyE2EEED1Ev>
 8049a70:	c9                   	leave  
 8049a71:	c3                   	ret    

08049a72 <_ZNSt23_Sp_counted_ptr_inplaceINSt6thread5_ImplISt12_Bind_simpleIFPFvvEvEEEESaIS7_ELN9__gnu_cxx12_Lock_policyE2EE14_M_get_deleterERKSt9type_info>:
 8049a72:	55                   	push   %ebp
 8049a73:	89 e5                	mov    %esp,%ebp
 8049a75:	83 ec 18             	sub    $0x18,%esp
 8049a78:	c7 44 24 04 94 9d 04 	movl   $0x8049d94,0x4(%esp)
 8049a7f:	08 
 8049a80:	8b 45 0c             	mov    0xc(%ebp),%eax
 8049a83:	89 04 24             	mov    %eax,(%esp)
 8049a86:	e8 df f1 ff ff       	call   8048c6a <_ZNKSt9type_infoeqERKS_>
 8049a8b:	84 c0                	test   %al,%al
 8049a8d:	74 08                	je     8049a97 <_ZNSt23_Sp_counted_ptr_inplaceINSt6thread5_ImplISt12_Bind_simpleIFPFvvEvEEEESaIS7_ELN9__gnu_cxx12_Lock_policyE2EE14_M_get_deleterERKSt9type_info+0x25>
 8049a8f:	8b 45 08             	mov    0x8(%ebp),%eax
 8049a92:	83 c0 10             	add    $0x10,%eax
 8049a95:	eb 05                	jmp    8049a9c <_ZNSt23_Sp_counted_ptr_inplaceINSt6thread5_ImplISt12_Bind_simpleIFPFvvEvEEEESaIS7_ELN9__gnu_cxx12_Lock_policyE2EE14_M_get_deleterERKSt9type_info+0x2a>
 8049a97:	b8 00 00 00 00       	mov    $0x0,%eax
 8049a9c:	c9                   	leave  
 8049a9d:	c3                   	ret    

08049a9e <_ZNSt6thread5_ImplISt12_Bind_simpleIFPFvvEvEEE6_M_runEv>:
 8049a9e:	55                   	push   %ebp
 8049a9f:	89 e5                	mov    %esp,%ebp
 8049aa1:	83 ec 18             	sub    $0x18,%esp
 8049aa4:	8b 45 08             	mov    0x8(%ebp),%eax
 8049aa7:	83 c0 0c             	add    $0xc,%eax
 8049aaa:	89 04 24             	mov    %eax,(%esp)
 8049aad:	e8 36 00 00 00       	call   8049ae8 <_ZNSt12_Bind_simpleIFPFvvEvEEclEv>
 8049ab2:	c9                   	leave  
 8049ab3:	c3                   	ret    

08049ab4 <_ZNSt16allocator_traitsISaINSt6thread5_ImplISt12_Bind_simpleIFPFvvEvEEEEEE7destroyIS7_EEvRS8_PT_>:
 8049ab4:	55                   	push   %ebp
 8049ab5:	89 e5                	mov    %esp,%ebp
 8049ab7:	83 ec 18             	sub    $0x18,%esp
 8049aba:	8b 45 0c             	mov    0xc(%ebp),%eax
 8049abd:	89 44 24 04          	mov    %eax,0x4(%esp)
 8049ac1:	8b 45 08             	mov    0x8(%ebp),%eax
 8049ac4:	89 04 24             	mov    %eax,(%esp)
 8049ac7:	e8 33 00 00 00       	call   8049aff <_ZNSt16allocator_traitsISaINSt6thread5_ImplISt12_Bind_simpleIFPFvvEvEEEEEE10_S_destroyIS7_EENSt9enable_ifIXsrNS9_16__destroy_helperIT_EE5valueEvE4typeERS8_PSD_>
 8049acc:	c9                   	leave  
 8049acd:	c3                   	ret    

08049ace <_ZNSt16allocator_traitsISaISt23_Sp_counted_ptr_inplaceINSt6thread5_ImplISt12_Bind_simpleIFPFvvEvEEEESaIS8_ELN9__gnu_cxx12_Lock_policyE2EEEE7destroyISC_EEvRSD_PT_>:
 8049ace:	55                   	push   %ebp
 8049acf:	89 e5                	mov    %esp,%ebp
 8049ad1:	83 ec 18             	sub    $0x18,%esp
 8049ad4:	8b 45 0c             	mov    0xc(%ebp),%eax
 8049ad7:	89 44 24 04          	mov    %eax,0x4(%esp)
 8049adb:	8b 45 08             	mov    0x8(%ebp),%eax
 8049ade:	89 04 24             	mov    %eax,(%esp)
 8049ae1:	e8 33 00 00 00       	call   8049b19 <_ZNSt16allocator_traitsISaISt23_Sp_counted_ptr_inplaceINSt6thread5_ImplISt12_Bind_simpleIFPFvvEvEEEESaIS8_ELN9__gnu_cxx12_Lock_policyE2EEEE10_S_destroyISC_EENSt9enable_ifIXsrNSE_16__destroy_helperIT_EE5valueEvE4typeERSD_PSI_>
 8049ae6:	c9                   	leave  
 8049ae7:	c3                   	ret    

08049ae8 <_ZNSt12_Bind_simpleIFPFvvEvEEclEv>:
 8049ae8:	55                   	push   %ebp
 8049ae9:	89 e5                	mov    %esp,%ebp
 8049aeb:	83 ec 28             	sub    $0x28,%esp
 8049aee:	88 44 24 04          	mov    %al,0x4(%esp)
 8049af2:	8b 45 08             	mov    0x8(%ebp),%eax
 8049af5:	89 04 24             	mov    %eax,(%esp)
 8049af8:	e8 5d 00 00 00       	call   8049b5a <_ZNSt12_Bind_simpleIFPFvvEvEE9_M_invokeIIEEEvSt12_Index_tupleIIXspT_EEE>
 8049afd:	c9                   	leave  
 8049afe:	c3                   	ret    

08049aff <_ZNSt16allocator_traitsISaINSt6thread5_ImplISt12_Bind_simpleIFPFvvEvEEEEEE10_S_destroyIS7_EENSt9enable_ifIXsrNS9_16__destroy_helperIT_EE5valueEvE4typeERS8_PSD_>:
 8049aff:	55                   	push   %ebp
 8049b00:	89 e5                	mov    %esp,%ebp
 8049b02:	83 ec 18             	sub    $0x18,%esp
 8049b05:	8b 45 0c             	mov    0xc(%ebp),%eax
 8049b08:	89 44 24 04          	mov    %eax,0x4(%esp)
 8049b0c:	8b 45 08             	mov    0x8(%ebp),%eax
 8049b0f:	89 04 24             	mov    %eax,(%esp)
 8049b12:	e8 63 00 00 00       	call   8049b7a <_ZN9__gnu_cxx13new_allocatorINSt6thread5_ImplISt12_Bind_simpleIFPFvvEvEEEEE7destroyIS8_EEvPT_>
 8049b17:	c9                   	leave  
 8049b18:	c3                   	ret    

08049b19 <_ZNSt16allocator_traitsISaISt23_Sp_counted_ptr_inplaceINSt6thread5_ImplISt12_Bind_simpleIFPFvvEvEEEESaIS8_ELN9__gnu_cxx12_Lock_policyE2EEEE10_S_destroyISC_EENSt9enable_ifIXsrNSE_16__destroy_helperIT_EE5valueEvE4typeERSD_PSI_>:
 8049b19:	55                   	push   %ebp
 8049b1a:	89 e5                	mov    %esp,%ebp
 8049b1c:	83 ec 18             	sub    $0x18,%esp
 8049b1f:	8b 45 0c             	mov    0xc(%ebp),%eax
 8049b22:	89 44 24 04          	mov    %eax,0x4(%esp)
 8049b26:	8b 45 08             	mov    0x8(%ebp),%eax
 8049b29:	89 04 24             	mov    %eax,(%esp)
 8049b2c:	e8 61 00 00 00       	call   8049b92 <_ZN9__gnu_cxx13new_allocatorISt23_Sp_counted_ptr_inplaceINSt6thread5_ImplISt12_Bind_simpleIFPFvvEvEEEESaIS9_ELNS_12_Lock_policyE2EEE7destroyISC_EEvPT_>
 8049b31:	c9                   	leave  
 8049b32:	c3                   	ret    

08049b33 <_ZSt12__get_helperILj0EPFvvEIEENSt9__add_refIT0_E4typeERSt11_Tuple_implIXT_EIS3_DpT1_EE>:
 8049b33:	55                   	push   %ebp
 8049b34:	89 e5                	mov    %esp,%ebp
 8049b36:	83 ec 18             	sub    $0x18,%esp
 8049b39:	8b 45 08             	mov    0x8(%ebp),%eax
 8049b3c:	89 04 24             	mov    %eax,(%esp)
 8049b3f:	e8 d2 f4 ff ff       	call   8049016 <_ZNSt11_Tuple_implILj0EIPFvvEEE7_M_headERS2_>
 8049b44:	c9                   	leave  
 8049b45:	c3                   	ret    

08049b46 <_ZSt3getILj0EIPFvvEEENSt9__add_refINSt13tuple_elementIXT_ESt5tupleIIDpT0_EEE4typeEE4typeERS7_>:
 8049b46:	55                   	push   %ebp
 8049b47:	89 e5                	mov    %esp,%ebp
 8049b49:	83 ec 18             	sub    $0x18,%esp
 8049b4c:	8b 45 08             	mov    0x8(%ebp),%eax
 8049b4f:	89 04 24             	mov    %eax,(%esp)
 8049b52:	e8 dc ff ff ff       	call   8049b33 <_ZSt12__get_helperILj0EPFvvEIEENSt9__add_refIT0_E4typeERSt11_Tuple_implIXT_EIS3_DpT1_EE>
 8049b57:	c9                   	leave  
 8049b58:	c3                   	ret    
 8049b59:	90                   	nop

08049b5a <_ZNSt12_Bind_simpleIFPFvvEvEE9_M_invokeIIEEEvSt12_Index_tupleIIXspT_EEE>:
 8049b5a:	55                   	push   %ebp
 8049b5b:	89 e5                	mov    %esp,%ebp
 8049b5d:	83 ec 18             	sub    $0x18,%esp
 8049b60:	8b 45 08             	mov    0x8(%ebp),%eax
 8049b63:	89 04 24             	mov    %eax,(%esp)
 8049b66:	e8 db ff ff ff       	call   8049b46 <_ZSt3getILj0EIPFvvEEENSt9__add_refINSt13tuple_elementIXT_ESt5tupleIIDpT0_EEE4typeEE4typeERS7_>
 8049b6b:	89 04 24             	mov    %eax,(%esp)
 8049b6e:	e8 b6 f4 ff ff       	call   8049029 <_ZSt7forwardIPFvvEEOT_RNSt16remove_referenceIS2_E4typeE>
 8049b73:	8b 00                	mov    (%eax),%eax
 8049b75:	ff d0                	call   *%eax
 8049b77:	c9                   	leave  
 8049b78:	c3                   	ret    
 8049b79:	90                   	nop

08049b7a <_ZN9__gnu_cxx13new_allocatorINSt6thread5_ImplISt12_Bind_simpleIFPFvvEvEEEEE7destroyIS8_EEvPT_>:
 8049b7a:	55                   	push   %ebp
 8049b7b:	89 e5                	mov    %esp,%ebp
 8049b7d:	83 ec 18             	sub    $0x18,%esp
 8049b80:	8b 45 0c             	mov    0xc(%ebp),%eax
 8049b83:	8b 00                	mov    (%eax),%eax
 8049b85:	8b 00                	mov    (%eax),%eax
 8049b87:	8b 55 0c             	mov    0xc(%ebp),%edx
 8049b8a:	89 14 24             	mov    %edx,(%esp)
 8049b8d:	ff d0                	call   *%eax
 8049b8f:	c9                   	leave  
 8049b90:	c3                   	ret    
 8049b91:	90                   	nop

08049b92 <_ZN9__gnu_cxx13new_allocatorISt23_Sp_counted_ptr_inplaceINSt6thread5_ImplISt12_Bind_simpleIFPFvvEvEEEESaIS9_ELNS_12_Lock_policyE2EEE7destroyISC_EEvPT_>:
 8049b92:	55                   	push   %ebp
 8049b93:	89 e5                	mov    %esp,%ebp
 8049b95:	83 ec 18             	sub    $0x18,%esp
 8049b98:	8b 45 0c             	mov    0xc(%ebp),%eax
 8049b9b:	89 04 24             	mov    %eax,(%esp)
 8049b9e:	e8 ff fd ff ff       	call   80499a2 <_ZNSt23_Sp_counted_ptr_inplaceINSt6thread5_ImplISt12_Bind_simpleIFPFvvEvEEEESaIS7_ELN9__gnu_cxx12_Lock_policyE2EED1Ev>
 8049ba3:	c9                   	leave  
 8049ba4:	c3                   	ret    
 8049ba5:	66 90                	xchg   %ax,%ax
 8049ba7:	66 90                	xchg   %ax,%ax
 8049ba9:	66 90                	xchg   %ax,%ax
 8049bab:	66 90                	xchg   %ax,%ax
 8049bad:	66 90                	xchg   %ax,%ax
 8049baf:	90                   	nop

08049bb0 <__libc_csu_init>:
 8049bb0:	55                   	push   %ebp
 8049bb1:	57                   	push   %edi
 8049bb2:	31 ff                	xor    %edi,%edi
 8049bb4:	56                   	push   %esi
 8049bb5:	53                   	push   %ebx
 8049bb6:	e8 25 ed ff ff       	call   80488e0 <__x86.get_pc_thunk.bx>
 8049bbb:	81 c3 45 34 00 00    	add    $0x3445,%ebx
 8049bc1:	83 ec 1c             	sub    $0x1c,%esp
 8049bc4:	8b 6c 24 30          	mov    0x30(%esp),%ebp
 8049bc8:	8d b3 f4 fe ff ff    	lea    -0x10c(%ebx),%esi
 8049bce:	e8 81 eb ff ff       	call   8048754 <_init>
 8049bd3:	8d 83 f0 fe ff ff    	lea    -0x110(%ebx),%eax
 8049bd9:	29 c6                	sub    %eax,%esi
 8049bdb:	c1 fe 02             	sar    $0x2,%esi
 8049bde:	85 f6                	test   %esi,%esi
 8049be0:	74 27                	je     8049c09 <__libc_csu_init+0x59>
 8049be2:	8d b6 00 00 00 00    	lea    0x0(%esi),%esi
 8049be8:	8b 44 24 38          	mov    0x38(%esp),%eax
 8049bec:	89 2c 24             	mov    %ebp,(%esp)
 8049bef:	89 44 24 08          	mov    %eax,0x8(%esp)
 8049bf3:	8b 44 24 34          	mov    0x34(%esp),%eax
 8049bf7:	89 44 24 04          	mov    %eax,0x4(%esp)
 8049bfb:	ff 94 bb f0 fe ff ff 	call   *-0x110(%ebx,%edi,4)
 8049c02:	83 c7 01             	add    $0x1,%edi
 8049c05:	39 f7                	cmp    %esi,%edi
 8049c07:	75 df                	jne    8049be8 <__libc_csu_init+0x38>
 8049c09:	83 c4 1c             	add    $0x1c,%esp
 8049c0c:	5b                   	pop    %ebx
 8049c0d:	5e                   	pop    %esi
 8049c0e:	5f                   	pop    %edi
 8049c0f:	5d                   	pop    %ebp
 8049c10:	c3                   	ret    
 8049c11:	eb 0d                	jmp    8049c20 <__libc_csu_fini>
 8049c13:	90                   	nop
 8049c14:	90                   	nop
 8049c15:	90                   	nop
 8049c16:	90                   	nop
 8049c17:	90                   	nop
 8049c18:	90                   	nop
 8049c19:	90                   	nop
 8049c1a:	90                   	nop
 8049c1b:	90                   	nop
 8049c1c:	90                   	nop
 8049c1d:	90                   	nop
 8049c1e:	90                   	nop
 8049c1f:	90                   	nop

08049c20 <__libc_csu_fini>:
 8049c20:	f3 c3                	repz ret 

Disassembly of section .fini:

08049c24 <_fini>:
 8049c24:	53                   	push   %ebx
 8049c25:	83 ec 08             	sub    $0x8,%esp
 8049c28:	e8 b3 ec ff ff       	call   80488e0 <__x86.get_pc_thunk.bx>
 8049c2d:	81 c3 d3 33 00 00    	add    $0x33d3,%ebx
 8049c33:	83 c4 08             	add    $0x8,%esp
 8049c36:	5b                   	pop    %ebx
 8049c37:	c3                   	ret    
