
test:     file format elf32-i386


Disassembly of section .init:

080485e8 <_init>:
 80485e8:	53                   	push   %ebx
 80485e9:	83 ec 08             	sub    $0x8,%esp
 80485ec:	e8 ff 00 00 00       	call   80486f0 <__x86.get_pc_thunk.bx>
 80485f1:	81 c3 0f 2a 00 00    	add    $0x2a0f,%ebx
 80485f7:	8b 83 fc ff ff ff    	mov    -0x4(%ebx),%eax
 80485fd:	85 c0                	test   %eax,%eax
 80485ff:	74 05                	je     8048606 <_init+0x1e>
 8048601:	e8 3a 00 00 00       	call   8048640 <__gmon_start__@plt>
 8048606:	83 c4 08             	add    $0x8,%esp
 8048609:	5b                   	pop    %ebx
 804860a:	c3                   	ret    

Disassembly of section .plt:

08048610 <_ZNSolsEi@plt-0x10>:
 8048610:	ff 35 04 b0 04 08    	pushl  0x804b004
 8048616:	ff 25 08 b0 04 08    	jmp    *0x804b008
 804861c:	00 00                	add    %al,(%eax)
	...

08048620 <_ZNSolsEi@plt>:
 8048620:	ff 25 0c b0 04 08    	jmp    *0x804b00c
 8048626:	68 00 00 00 00       	push   $0x0
 804862b:	e9 e0 ff ff ff       	jmp    8048610 <_init+0x28>

08048630 <__cxa_atexit@plt>:
 8048630:	ff 25 10 b0 04 08    	jmp    *0x804b010
 8048636:	68 08 00 00 00       	push   $0x8
 804863b:	e9 d0 ff ff ff       	jmp    8048610 <_init+0x28>

08048640 <__gmon_start__@plt>:
 8048640:	ff 25 14 b0 04 08    	jmp    *0x804b014
 8048646:	68 10 00 00 00       	push   $0x10
 804864b:	e9 c0 ff ff ff       	jmp    8048610 <_init+0x28>

08048650 <_ZNSt8ios_base4InitC1Ev@plt>:
 8048650:	ff 25 18 b0 04 08    	jmp    *0x804b018
 8048656:	68 18 00 00 00       	push   $0x18
 804865b:	e9 b0 ff ff ff       	jmp    8048610 <_init+0x28>

08048660 <__libc_start_main@plt>:
 8048660:	ff 25 1c b0 04 08    	jmp    *0x804b01c
 8048666:	68 20 00 00 00       	push   $0x20
 804866b:	e9 a0 ff ff ff       	jmp    8048610 <_init+0x28>

08048670 <_ZNSt8ios_base4InitD1Ev@plt>:
 8048670:	ff 25 20 b0 04 08    	jmp    *0x804b020
 8048676:	68 28 00 00 00       	push   $0x28
 804867b:	e9 90 ff ff ff       	jmp    8048610 <_init+0x28>

08048680 <_ZStlsISt11char_traitsIcEERSt13basic_ostreamIcT_ES5_PKc@plt>:
 8048680:	ff 25 24 b0 04 08    	jmp    *0x804b024
 8048686:	68 30 00 00 00       	push   $0x30
 804868b:	e9 80 ff ff ff       	jmp    8048610 <_init+0x28>

08048690 <printf@plt>:
 8048690:	ff 25 28 b0 04 08    	jmp    *0x804b028
 8048696:	68 38 00 00 00       	push   $0x38
 804869b:	e9 70 ff ff ff       	jmp    8048610 <_init+0x28>

080486a0 <_ZNSolsEPFRSoS_E@plt>:
 80486a0:	ff 25 2c b0 04 08    	jmp    *0x804b02c
 80486a6:	68 40 00 00 00       	push   $0x40
 80486ab:	e9 60 ff ff ff       	jmp    8048610 <_init+0x28>

080486b0 <_ZSt4endlIcSt11char_traitsIcEERSt13basic_ostreamIT_T0_ES6_@plt>:
 80486b0:	ff 25 30 b0 04 08    	jmp    *0x804b030
 80486b6:	68 48 00 00 00       	push   $0x48
 80486bb:	e9 50 ff ff ff       	jmp    8048610 <_init+0x28>

Disassembly of section .text:

080486c0 <_start>:
 80486c0:	31 ed                	xor    %ebp,%ebp
 80486c2:	5e                   	pop    %esi
 80486c3:	89 e1                	mov    %esp,%ecx
 80486c5:	83 e4 f0             	and    $0xfffffff0,%esp
 80486c8:	50                   	push   %eax
 80486c9:	54                   	push   %esp
 80486ca:	52                   	push   %edx
 80486cb:	68 00 90 04 08       	push   $0x8049000
 80486d0:	68 90 8f 04 08       	push   $0x8048f90
 80486d5:	51                   	push   %ecx
 80486d6:	56                   	push   %esi
 80486d7:	68 bd 87 04 08       	push   $0x80487bd
 80486dc:	e8 7f ff ff ff       	call   8048660 <__libc_start_main@plt>
 80486e1:	f4                   	hlt    
 80486e2:	66 90                	xchg   %ax,%ax
 80486e4:	66 90                	xchg   %ax,%ax
 80486e6:	66 90                	xchg   %ax,%ax
 80486e8:	66 90                	xchg   %ax,%ax
 80486ea:	66 90                	xchg   %ax,%ax
 80486ec:	66 90                	xchg   %ax,%ax
 80486ee:	66 90                	xchg   %ax,%ax

080486f0 <__x86.get_pc_thunk.bx>:
 80486f0:	8b 1c 24             	mov    (%esp),%ebx
 80486f3:	c3                   	ret    
 80486f4:	66 90                	xchg   %ax,%ax
 80486f6:	66 90                	xchg   %ax,%ax
 80486f8:	66 90                	xchg   %ax,%ax
 80486fa:	66 90                	xchg   %ax,%ax
 80486fc:	66 90                	xchg   %ax,%ax
 80486fe:	66 90                	xchg   %ax,%ax

08048700 <deregister_tm_clones>:
 8048700:	b8 3f b0 04 08       	mov    $0x804b03f,%eax
 8048705:	2d 3c b0 04 08       	sub    $0x804b03c,%eax
 804870a:	83 f8 06             	cmp    $0x6,%eax
 804870d:	77 01                	ja     8048710 <deregister_tm_clones+0x10>
 804870f:	c3                   	ret    
 8048710:	b8 00 00 00 00       	mov    $0x0,%eax
 8048715:	85 c0                	test   %eax,%eax
 8048717:	74 f6                	je     804870f <deregister_tm_clones+0xf>
 8048719:	55                   	push   %ebp
 804871a:	89 e5                	mov    %esp,%ebp
 804871c:	83 ec 18             	sub    $0x18,%esp
 804871f:	c7 04 24 3c b0 04 08 	movl   $0x804b03c,(%esp)
 8048726:	ff d0                	call   *%eax
 8048728:	c9                   	leave  
 8048729:	c3                   	ret    
 804872a:	8d b6 00 00 00 00    	lea    0x0(%esi),%esi

08048730 <register_tm_clones>:
 8048730:	b8 3c b0 04 08       	mov    $0x804b03c,%eax
 8048735:	2d 3c b0 04 08       	sub    $0x804b03c,%eax
 804873a:	c1 f8 02             	sar    $0x2,%eax
 804873d:	89 c2                	mov    %eax,%edx
 804873f:	c1 ea 1f             	shr    $0x1f,%edx
 8048742:	01 d0                	add    %edx,%eax
 8048744:	d1 f8                	sar    %eax
 8048746:	75 01                	jne    8048749 <register_tm_clones+0x19>
 8048748:	c3                   	ret    
 8048749:	ba 00 00 00 00       	mov    $0x0,%edx
 804874e:	85 d2                	test   %edx,%edx
 8048750:	74 f6                	je     8048748 <register_tm_clones+0x18>
 8048752:	55                   	push   %ebp
 8048753:	89 e5                	mov    %esp,%ebp
 8048755:	83 ec 18             	sub    $0x18,%esp
 8048758:	89 44 24 04          	mov    %eax,0x4(%esp)
 804875c:	c7 04 24 3c b0 04 08 	movl   $0x804b03c,(%esp)
 8048763:	ff d2                	call   *%edx
 8048765:	c9                   	leave  
 8048766:	c3                   	ret    
 8048767:	89 f6                	mov    %esi,%esi
 8048769:	8d bc 27 00 00 00 00 	lea    0x0(%edi,%eiz,1),%edi

08048770 <__do_global_dtors_aux>:
 8048770:	80 3d 4c b1 04 08 00 	cmpb   $0x0,0x804b14c
 8048777:	75 13                	jne    804878c <__do_global_dtors_aux+0x1c>
 8048779:	55                   	push   %ebp
 804877a:	89 e5                	mov    %esp,%ebp
 804877c:	83 ec 08             	sub    $0x8,%esp
 804877f:	e8 7c ff ff ff       	call   8048700 <deregister_tm_clones>
 8048784:	c6 05 4c b1 04 08 01 	movb   $0x1,0x804b14c
 804878b:	c9                   	leave  
 804878c:	f3 c3                	repz ret 
 804878e:	66 90                	xchg   %ax,%ax

08048790 <frame_dummy>:
 8048790:	a1 08 af 04 08       	mov    0x804af08,%eax
 8048795:	85 c0                	test   %eax,%eax
 8048797:	74 1f                	je     80487b8 <frame_dummy+0x28>
 8048799:	b8 00 00 00 00       	mov    $0x0,%eax
 804879e:	85 c0                	test   %eax,%eax
 80487a0:	74 16                	je     80487b8 <frame_dummy+0x28>
 80487a2:	55                   	push   %ebp
 80487a3:	89 e5                	mov    %esp,%ebp
 80487a5:	83 ec 18             	sub    $0x18,%esp
 80487a8:	c7 04 24 08 af 04 08 	movl   $0x804af08,(%esp)
 80487af:	ff d0                	call   *%eax
 80487b1:	c9                   	leave  
 80487b2:	e9 79 ff ff ff       	jmp    8048730 <register_tm_clones>
 80487b7:	90                   	nop
 80487b8:	e9 73 ff ff ff       	jmp    8048730 <register_tm_clones>

080487bd <main>:
    cout << "Son: this is test2" << endl;
  }
};

int main()
{
 80487bd:	8d 4c 24 04          	lea    0x4(%esp),%ecx
 80487c1:	83 e4 f0             	and    $0xfffffff0,%esp
 80487c4:	ff 71 fc             	pushl  -0x4(%ecx)
 80487c7:	55                   	push   %ebp
 80487c8:	89 e5                	mov    %esp,%ebp
 80487ca:	57                   	push   %edi
 80487cb:	56                   	push   %esi
 80487cc:	53                   	push   %ebx
 80487cd:	51                   	push   %ecx
 80487ce:	83 ec 68             	sub    $0x68,%esp
    test_son son;
 80487d1:	c7 45 d0 88 90 04 08 	movl   $0x8049088,-0x30(%ebp)
    test t=son;
 80487d8:	8d 45 d0             	lea    -0x30(%ebp),%eax
 80487db:	89 44 24 04          	mov    %eax,0x4(%esp)
 80487df:	8d 45 d4             	lea    -0x2c(%ebp),%eax
 80487e2:	89 04 24             	mov    %eax,(%esp)
 80487e5:	e8 32 03 00 00       	call   8048b1c <_ZN4testC1ERKS_>

    boost::bind(&test::test2,_1) (&son);
 80487ea:	8d 45 d0             	lea    -0x30(%ebp),%eax
 80487ed:	89 45 d8             	mov    %eax,-0x28(%ebp)
 80487f0:	bb 05 00 00 00       	mov    $0x5,%ebx
 80487f5:	be 00 00 00 00       	mov    $0x0,%esi
 80487fa:	8d 45 dc             	lea    -0x24(%ebp),%eax
 80487fd:	89 f9                	mov    %edi,%ecx
 80487ff:	88 4c 24 0c          	mov    %cl,0xc(%esp)
 8048803:	89 5c 24 04          	mov    %ebx,0x4(%esp)
 8048807:	89 74 24 08          	mov    %esi,0x8(%esp)
 804880b:	89 04 24             	mov    %eax,(%esp)
 804880e:	e8 4c 03 00 00       	call   8048b5f <_ZN5boost4bindIv4testNS_3argILi1EEEEENS_3_bi6bind_tIT_NS_4_mfi3mf0IS6_T0_EENS4_9list_av_1IT1_E4typeEEEMS9_FS6_vESC_>
 8048813:	83 ec 04             	sub    $0x4,%esp
 8048816:	8d 45 d8             	lea    -0x28(%ebp),%eax
 8048819:	89 44 24 04          	mov    %eax,0x4(%esp)
 804881d:	8d 45 dc             	lea    -0x24(%ebp),%eax
 8048820:	89 04 24             	mov    %eax,(%esp)
 8048823:	e8 8c 03 00 00       	call   8048bb4 <_ZN5boost3_bi6bind_tIvNS_4_mfi3mf0Iv4testEENS0_5list1INS_3argILi1EEEEEEclIP8test_sonEEvRKT_>
    boost::bind(&test::test2,_1) (son);
 8048828:	c7 45 a8 05 00 00 00 	movl   $0x5,-0x58(%ebp)
 804882f:	c7 45 ac 00 00 00 00 	movl   $0x0,-0x54(%ebp)
 8048836:	8d 45 dc             	lea    -0x24(%ebp),%eax
 8048839:	0f b6 5d a6          	movzbl -0x5a(%ebp),%ebx
 804883d:	88 5c 24 0c          	mov    %bl,0xc(%esp)
 8048841:	8b 75 a8             	mov    -0x58(%ebp),%esi
 8048844:	8b 7d ac             	mov    -0x54(%ebp),%edi
 8048847:	89 74 24 04          	mov    %esi,0x4(%esp)
 804884b:	89 7c 24 08          	mov    %edi,0x8(%esp)
 804884f:	89 04 24             	mov    %eax,(%esp)
 8048852:	e8 08 03 00 00       	call   8048b5f <_ZN5boost4bindIv4testNS_3argILi1EEEEENS_3_bi6bind_tIT_NS_4_mfi3mf0IS6_T0_EENS4_9list_av_1IT1_E4typeEEEMS9_FS6_vESC_>
 8048857:	83 ec 04             	sub    $0x4,%esp
 804885a:	8d 45 d0             	lea    -0x30(%ebp),%eax
 804885d:	89 44 24 04          	mov    %eax,0x4(%esp)
 8048861:	8d 45 dc             	lea    -0x24(%ebp),%eax
 8048864:	89 04 24             	mov    %eax,(%esp)
 8048867:	e8 90 03 00 00       	call   8048bfc <_ZN5boost3_bi6bind_tIvNS_4_mfi3mf0Iv4testEENS0_5list1INS_3argILi1EEEEEEclI8test_sonEEvRT_>
    boost::bind(&test::test2,_1) (t);
 804886c:	c7 45 b0 05 00 00 00 	movl   $0x5,-0x50(%ebp)
 8048873:	c7 45 b4 00 00 00 00 	movl   $0x0,-0x4c(%ebp)
 804887a:	8d 45 dc             	lea    -0x24(%ebp),%eax
 804887d:	0f b6 4d a7          	movzbl -0x59(%ebp),%ecx
 8048881:	88 4c 24 0c          	mov    %cl,0xc(%esp)
 8048885:	8b 75 b0             	mov    -0x50(%ebp),%esi
 8048888:	8b 7d b4             	mov    -0x4c(%ebp),%edi
 804888b:	89 74 24 04          	mov    %esi,0x4(%esp)
 804888f:	89 7c 24 08          	mov    %edi,0x8(%esp)
 8048893:	89 04 24             	mov    %eax,(%esp)
 8048896:	e8 c4 02 00 00       	call   8048b5f <_ZN5boost4bindIv4testNS_3argILi1EEEEENS_3_bi6bind_tIT_NS_4_mfi3mf0IS6_T0_EENS4_9list_av_1IT1_E4typeEEEMS9_FS6_vESC_>
 804889b:	83 ec 04             	sub    $0x4,%esp
 804889e:	8d 45 d4             	lea    -0x2c(%ebp),%eax
 80488a1:	89 44 24 04          	mov    %eax,0x4(%esp)
 80488a5:	8d 45 dc             	lea    -0x24(%ebp),%eax
 80488a8:	89 04 24             	mov    %eax,(%esp)
 80488ab:	e8 94 03 00 00       	call   8048c44 <_ZN5boost3_bi6bind_tIvNS_4_mfi3mf0Iv4testEENS0_5list1INS_3argILi1EEEEEEclIS4_EEvRT_>

    //cout<<&test_son::test2<<endl;
    printf("%p\n",(void*)&test_son::test2);
 80488b0:	c7 44 24 04 f0 8a 04 	movl   $0x8048af0,0x4(%esp)
 80488b7:	08 
 80488b8:	c7 04 24 78 90 04 08 	movl   $0x8049078,(%esp)
 80488bf:	e8 cc fd ff ff       	call   8048690 <printf@plt>
    printf("%p\n",&test_son::test2);
 80488c4:	c7 45 b8 05 00 00 00 	movl   $0x5,-0x48(%ebp)
 80488cb:	c7 45 bc 00 00 00 00 	movl   $0x0,-0x44(%ebp)
 80488d2:	8b 45 b8             	mov    -0x48(%ebp),%eax
 80488d5:	8b 55 bc             	mov    -0x44(%ebp),%edx
 80488d8:	89 44 24 04          	mov    %eax,0x4(%esp)
 80488dc:	89 54 24 08          	mov    %edx,0x8(%esp)
 80488e0:	c7 04 24 78 90 04 08 	movl   $0x8049078,(%esp)
 80488e7:	e8 a4 fd ff ff       	call   8048690 <printf@plt>

    void (test_son::*MemFunPtr)();
    MemFunPtr=&test_son::test2;
 80488ec:	c7 45 c0 05 00 00 00 	movl   $0x5,-0x40(%ebp)
 80488f3:	c7 45 c4 00 00 00 00 	movl   $0x0,-0x3c(%ebp)
 80488fa:	8b 45 c0             	mov    -0x40(%ebp),%eax
 80488fd:	8b 55 c4             	mov    -0x3c(%ebp),%edx
 8048900:	89 45 dc             	mov    %eax,-0x24(%ebp)
 8048903:	89 55 e0             	mov    %edx,-0x20(%ebp)
    printf("%p\n", (void*)MemFunPtr);
 8048906:	8b 45 dc             	mov    -0x24(%ebp),%eax
 8048909:	83 e0 01             	and    $0x1,%eax
 804890c:	85 c0                	test   %eax,%eax
 804890e:	75 05                	jne    8048915 <main+0x158>
 8048910:	8b 45 dc             	mov    -0x24(%ebp),%eax
 8048913:	eb 16                	jmp    804892b <main+0x16e>
 8048915:	ba 00 00 00 00       	mov    $0x0,%edx
 804891a:	8b 45 e0             	mov    -0x20(%ebp),%eax
 804891d:	01 d0                	add    %edx,%eax
 804891f:	8b 10                	mov    (%eax),%edx
 8048921:	8b 45 dc             	mov    -0x24(%ebp),%eax
 8048924:	83 e8 01             	sub    $0x1,%eax
 8048927:	01 d0                	add    %edx,%eax
 8048929:	8b 00                	mov    (%eax),%eax
 804892b:	89 44 24 04          	mov    %eax,0x4(%esp)
 804892f:	c7 04 24 78 90 04 08 	movl   $0x8049078,(%esp)
 8048936:	e8 55 fd ff ff       	call   8048690 <printf@plt>
    (son.*MemFunPtr)();
 804893b:	8b 45 dc             	mov    -0x24(%ebp),%eax
 804893e:	83 e0 01             	and    $0x1,%eax
 8048941:	85 c0                	test   %eax,%eax
 8048943:	75 05                	jne    804894a <main+0x18d>
 8048945:	8b 45 dc             	mov    -0x24(%ebp),%eax
 8048948:	eb 14                	jmp    804895e <main+0x1a1>
 804894a:	8b 45 e0             	mov    -0x20(%ebp),%eax
 804894d:	8d 55 d0             	lea    -0x30(%ebp),%edx
 8048950:	01 d0                	add    %edx,%eax
 8048952:	8b 10                	mov    (%eax),%edx
 8048954:	8b 45 dc             	mov    -0x24(%ebp),%eax
 8048957:	83 e8 01             	sub    $0x1,%eax
 804895a:	01 d0                	add    %edx,%eax
 804895c:	8b 00                	mov    (%eax),%eax
 804895e:	8b 55 e0             	mov    -0x20(%ebp),%edx
 8048961:	8d 4d d0             	lea    -0x30(%ebp),%ecx
 8048964:	01 ca                	add    %ecx,%edx
 8048966:	89 14 24             	mov    %edx,(%esp)
 8048969:	ff d0                	call   *%eax
    //((&t)->*MemFunPtr)();
}
 804896b:	b8 00 00 00 00       	mov    $0x0,%eax
 8048970:	8d 65 f0             	lea    -0x10(%ebp),%esp
 8048973:	59                   	pop    %ecx
 8048974:	5b                   	pop    %ebx
 8048975:	5e                   	pop    %esi
 8048976:	5f                   	pop    %edi
 8048977:	5d                   	pop    %ebp
 8048978:	8d 61 fc             	lea    -0x4(%ecx),%esp
 804897b:	c3                   	ret    

0804897c <_Z41__static_initialization_and_destruction_0ii>:
 804897c:	55                   	push   %ebp
 804897d:	89 e5                	mov    %esp,%ebp
 804897f:	83 ec 18             	sub    $0x18,%esp
 8048982:	83 7d 08 01          	cmpl   $0x1,0x8(%ebp)
 8048986:	0f 85 a1 00 00 00    	jne    8048a2d <_Z41__static_initialization_and_destruction_0ii+0xb1>
 804898c:	81 7d 0c ff ff 00 00 	cmpl   $0xffff,0xc(%ebp)
 8048993:	0f 85 94 00 00 00    	jne    8048a2d <_Z41__static_initialization_and_destruction_0ii+0xb1>
  extern wostream wclog;	/// Linked to standard error (buffered)
#endif
  //@}

  // For construction of filebuffers for cout, cin, cerr, clog et. al.
  static ios_base::Init __ioinit;
 8048999:	c7 04 24 4d b1 04 08 	movl   $0x804b14d,(%esp)
 80489a0:	e8 ab fc ff ff       	call   8048650 <_ZNSt8ios_base4InitC1Ev@plt>
 80489a5:	c7 44 24 08 38 b0 04 	movl   $0x804b038,0x8(%esp)
 80489ac:	08 
 80489ad:	c7 44 24 04 4d b1 04 	movl   $0x804b14d,0x4(%esp)
 80489b4:	08 
 80489b5:	c7 04 24 70 86 04 08 	movl   $0x8048670,(%esp)
 80489bc:	e8 6f fc ff ff       	call   8048630 <__cxa_atexit@plt>
static boost::arg<8> _8;
static boost::arg<9> _9;

#else

boost::arg<1> _1;
 80489c1:	c7 04 24 4e b1 04 08 	movl   $0x804b14e,(%esp)
 80489c8:	e8 5d 01 00 00       	call   8048b2a <_ZN5boost3argILi1EEC1Ev>
boost::arg<2> _2;
 80489cd:	c7 04 24 4f b1 04 08 	movl   $0x804b14f,(%esp)
 80489d4:	e8 57 01 00 00       	call   8048b30 <_ZN5boost3argILi2EEC1Ev>
boost::arg<3> _3;
 80489d9:	c7 04 24 50 b1 04 08 	movl   $0x804b150,(%esp)
 80489e0:	e8 51 01 00 00       	call   8048b36 <_ZN5boost3argILi3EEC1Ev>
boost::arg<4> _4;
 80489e5:	c7 04 24 51 b1 04 08 	movl   $0x804b151,(%esp)
 80489ec:	e8 4b 01 00 00       	call   8048b3c <_ZN5boost3argILi4EEC1Ev>
boost::arg<5> _5;
 80489f1:	c7 04 24 52 b1 04 08 	movl   $0x804b152,(%esp)
 80489f8:	e8 45 01 00 00       	call   8048b42 <_ZN5boost3argILi5EEC1Ev>
boost::arg<6> _6;
 80489fd:	c7 04 24 53 b1 04 08 	movl   $0x804b153,(%esp)
 8048a04:	e8 3f 01 00 00       	call   8048b48 <_ZN5boost3argILi6EEC1Ev>
boost::arg<7> _7;
 8048a09:	c7 04 24 54 b1 04 08 	movl   $0x804b154,(%esp)
 8048a10:	e8 39 01 00 00       	call   8048b4e <_ZN5boost3argILi7EEC1Ev>
boost::arg<8> _8;
 8048a15:	c7 04 24 55 b1 04 08 	movl   $0x804b155,(%esp)
 8048a1c:	e8 33 01 00 00       	call   8048b54 <_ZN5boost3argILi8EEC1Ev>
boost::arg<9> _9;
 8048a21:	c7 04 24 56 b1 04 08 	movl   $0x804b156,(%esp)
 8048a28:	e8 2d 01 00 00       	call   8048b5a <_ZN5boost3argILi9EEC1Ev>
 8048a2d:	c9                   	leave  
 8048a2e:	c3                   	ret    

08048a2f <_GLOBAL__sub_I_main>:
 8048a2f:	55                   	push   %ebp
 8048a30:	89 e5                	mov    %esp,%ebp
 8048a32:	83 ec 18             	sub    $0x18,%esp
 8048a35:	c7 44 24 04 ff ff 00 	movl   $0xffff,0x4(%esp)
 8048a3c:	00 
 8048a3d:	c7 04 24 01 00 00 00 	movl   $0x1,(%esp)
 8048a44:	e8 33 ff ff ff       	call   804897c <_Z41__static_initialization_and_destruction_0ii>
 8048a49:	c9                   	leave  
 8048a4a:	c3                   	ret    
 8048a4b:	90                   	nop

08048a4c <_ZN4test5test1Ei>:
#include <stdio.h>
using namespace std;
class test 
{
public:
  virtual  void test1(int a)
 8048a4c:	55                   	push   %ebp
 8048a4d:	89 e5                	mov    %esp,%ebp
 8048a4f:	83 ec 18             	sub    $0x18,%esp
  {
    cout << "this is the class test" << a << endl;
 8048a52:	c7 44 24 04 23 90 04 	movl   $0x8049023,0x4(%esp)
 8048a59:	08 
 8048a5a:	c7 04 24 80 b0 04 08 	movl   $0x804b080,(%esp)
 8048a61:	e8 1a fc ff ff       	call   8048680 <_ZStlsISt11char_traitsIcEERSt13basic_ostreamIcT_ES5_PKc@plt>
 8048a66:	8b 55 0c             	mov    0xc(%ebp),%edx
 8048a69:	89 54 24 04          	mov    %edx,0x4(%esp)
 8048a6d:	89 04 24             	mov    %eax,(%esp)
 8048a70:	e8 ab fb ff ff       	call   8048620 <_ZNSolsEi@plt>
 8048a75:	c7 44 24 04 b0 86 04 	movl   $0x80486b0,0x4(%esp)
 8048a7c:	08 
 8048a7d:	89 04 24             	mov    %eax,(%esp)
 8048a80:	e8 1b fc ff ff       	call   80486a0 <_ZNSolsEPFRSoS_E@plt>
  }
 8048a85:	c9                   	leave  
 8048a86:	c3                   	ret    
 8048a87:	90                   	nop

08048a88 <_ZN4test5test2Ev>:

  virtual void test2()
 8048a88:	55                   	push   %ebp
 8048a89:	89 e5                	mov    %esp,%ebp
 8048a8b:	83 ec 18             	sub    $0x18,%esp
  {
    cout << "this is the class test " << endl;
 8048a8e:	c7 44 24 04 3a 90 04 	movl   $0x804903a,0x4(%esp)
 8048a95:	08 
 8048a96:	c7 04 24 80 b0 04 08 	movl   $0x804b080,(%esp)
 8048a9d:	e8 de fb ff ff       	call   8048680 <_ZStlsISt11char_traitsIcEERSt13basic_ostreamIcT_ES5_PKc@plt>
 8048aa2:	c7 44 24 04 b0 86 04 	movl   $0x80486b0,0x4(%esp)
 8048aa9:	08 
 8048aaa:	89 04 24             	mov    %eax,(%esp)
 8048aad:	e8 ee fb ff ff       	call   80486a0 <_ZNSolsEPFRSoS_E@plt>
  }
 8048ab2:	c9                   	leave  
 8048ab3:	c3                   	ret    

08048ab4 <_ZN8test_son5test1Ei>:
};

class test_son : public test
{
  public:
  void test1(int a)
 8048ab4:	55                   	push   %ebp
 8048ab5:	89 e5                	mov    %esp,%ebp
 8048ab7:	83 ec 18             	sub    $0x18,%esp
  {
    cout << "Son: this is test1" << a << endl;
 8048aba:	c7 44 24 04 52 90 04 	movl   $0x8049052,0x4(%esp)
 8048ac1:	08 
 8048ac2:	c7 04 24 80 b0 04 08 	movl   $0x804b080,(%esp)
 8048ac9:	e8 b2 fb ff ff       	call   8048680 <_ZStlsISt11char_traitsIcEERSt13basic_ostreamIcT_ES5_PKc@plt>
 8048ace:	8b 55 0c             	mov    0xc(%ebp),%edx
 8048ad1:	89 54 24 04          	mov    %edx,0x4(%esp)
 8048ad5:	89 04 24             	mov    %eax,(%esp)
 8048ad8:	e8 43 fb ff ff       	call   8048620 <_ZNSolsEi@plt>
 8048add:	c7 44 24 04 b0 86 04 	movl   $0x80486b0,0x4(%esp)
 8048ae4:	08 
 8048ae5:	89 04 24             	mov    %eax,(%esp)
 8048ae8:	e8 b3 fb ff ff       	call   80486a0 <_ZNSolsEPFRSoS_E@plt>
  }
 8048aed:	c9                   	leave  
 8048aee:	c3                   	ret    
 8048aef:	90                   	nop

08048af0 <_ZN8test_son5test2Ev>:

  void test2() 
 8048af0:	55                   	push   %ebp
 8048af1:	89 e5                	mov    %esp,%ebp
 8048af3:	83 ec 18             	sub    $0x18,%esp
  {
    cout << "Son: this is test2" << endl;
 8048af6:	c7 44 24 04 65 90 04 	movl   $0x8049065,0x4(%esp)
 8048afd:	08 
 8048afe:	c7 04 24 80 b0 04 08 	movl   $0x804b080,(%esp)
 8048b05:	e8 76 fb ff ff       	call   8048680 <_ZStlsISt11char_traitsIcEERSt13basic_ostreamIcT_ES5_PKc@plt>
 8048b0a:	c7 44 24 04 b0 86 04 	movl   $0x80486b0,0x4(%esp)
 8048b11:	08 
 8048b12:	89 04 24             	mov    %eax,(%esp)
 8048b15:	e8 86 fb ff ff       	call   80486a0 <_ZNSolsEPFRSoS_E@plt>
  }
 8048b1a:	c9                   	leave  
 8048b1b:	c3                   	ret    

08048b1c <_ZN4testC1ERKS_>:
#include <iostream>
#include <boost/bind.hpp>
#include <stdio.h>
using namespace std;
class test 
 8048b1c:	55                   	push   %ebp
 8048b1d:	89 e5                	mov    %esp,%ebp
 8048b1f:	8b 45 08             	mov    0x8(%ebp),%eax
 8048b22:	c7 00 98 90 04 08    	movl   $0x8049098,(%eax)
 8048b28:	5d                   	pop    %ebp
 8048b29:	c3                   	ret    

08048b2a <_ZN5boost3argILi1EEC1Ev>:
namespace boost
{

template< int I > struct arg
{
    arg()
 8048b2a:	55                   	push   %ebp
 8048b2b:	89 e5                	mov    %esp,%ebp
    {
    }
 8048b2d:	5d                   	pop    %ebp
 8048b2e:	c3                   	ret    
 8048b2f:	90                   	nop

08048b30 <_ZN5boost3argILi2EEC1Ev>:
namespace boost
{

template< int I > struct arg
{
    arg()
 8048b30:	55                   	push   %ebp
 8048b31:	89 e5                	mov    %esp,%ebp
    {
    }
 8048b33:	5d                   	pop    %ebp
 8048b34:	c3                   	ret    
 8048b35:	90                   	nop

08048b36 <_ZN5boost3argILi3EEC1Ev>:
namespace boost
{

template< int I > struct arg
{
    arg()
 8048b36:	55                   	push   %ebp
 8048b37:	89 e5                	mov    %esp,%ebp
    {
    }
 8048b39:	5d                   	pop    %ebp
 8048b3a:	c3                   	ret    
 8048b3b:	90                   	nop

08048b3c <_ZN5boost3argILi4EEC1Ev>:
namespace boost
{

template< int I > struct arg
{
    arg()
 8048b3c:	55                   	push   %ebp
 8048b3d:	89 e5                	mov    %esp,%ebp
    {
    }
 8048b3f:	5d                   	pop    %ebp
 8048b40:	c3                   	ret    
 8048b41:	90                   	nop

08048b42 <_ZN5boost3argILi5EEC1Ev>:
namespace boost
{

template< int I > struct arg
{
    arg()
 8048b42:	55                   	push   %ebp
 8048b43:	89 e5                	mov    %esp,%ebp
    {
    }
 8048b45:	5d                   	pop    %ebp
 8048b46:	c3                   	ret    
 8048b47:	90                   	nop

08048b48 <_ZN5boost3argILi6EEC1Ev>:
namespace boost
{

template< int I > struct arg
{
    arg()
 8048b48:	55                   	push   %ebp
 8048b49:	89 e5                	mov    %esp,%ebp
    {
    }
 8048b4b:	5d                   	pop    %ebp
 8048b4c:	c3                   	ret    
 8048b4d:	90                   	nop

08048b4e <_ZN5boost3argILi7EEC1Ev>:
namespace boost
{

template< int I > struct arg
{
    arg()
 8048b4e:	55                   	push   %ebp
 8048b4f:	89 e5                	mov    %esp,%ebp
    {
    }
 8048b51:	5d                   	pop    %ebp
 8048b52:	c3                   	ret    
 8048b53:	90                   	nop

08048b54 <_ZN5boost3argILi8EEC1Ev>:
namespace boost
{

template< int I > struct arg
{
    arg()
 8048b54:	55                   	push   %ebp
 8048b55:	89 e5                	mov    %esp,%ebp
    {
    }
 8048b57:	5d                   	pop    %ebp
 8048b58:	c3                   	ret    
 8048b59:	90                   	nop

08048b5a <_ZN5boost3argILi9EEC1Ev>:
namespace boost
{

template< int I > struct arg
{
    arg()
 8048b5a:	55                   	push   %ebp
 8048b5b:	89 e5                	mov    %esp,%ebp
    {
    }
 8048b5d:	5d                   	pop    %ebp
 8048b5e:	c3                   	ret    

08048b5f <_ZN5boost4bindIv4testNS_3argILi1EEEEENS_3_bi6bind_tIT_NS_4_mfi3mf0IS6_T0_EENS4_9list_av_1IT1_E4typeEEEMS9_FS6_vESC_>:
// 0

template<class R, class T,
    class A1>
    _bi::bind_t<R, _mfi::BOOST_BIND_MF_NAME(mf0)<R, T>, typename _bi::list_av_1<A1>::type>
    BOOST_BIND(R (BOOST_BIND_MF_CC T::*f) (), A1 a1)
 8048b5f:	55                   	push   %ebp
 8048b60:	89 e5                	mov    %esp,%ebp
 8048b62:	83 ec 28             	sub    $0x28,%esp
{
    typedef _mfi::BOOST_BIND_MF_NAME(mf0)<R, T> F;
    typedef typename _bi::list_av_1<A1>::type list_type;
    return _bi::bind_t<R, F, list_type>(F(f), list_type(a1));
 8048b65:	88 44 24 04          	mov    %al,0x4(%esp)
 8048b69:	8d 45 ef             	lea    -0x11(%ebp),%eax
 8048b6c:	89 04 24             	mov    %eax,(%esp)
 8048b6f:	e8 2c 01 00 00       	call   8048ca0 <_ZN5boost3_bi5list1INS_3argILi1EEEEC1ES3_>
 8048b74:	8b 45 0c             	mov    0xc(%ebp),%eax
 8048b77:	8b 55 10             	mov    0x10(%ebp),%edx
 8048b7a:	89 44 24 04          	mov    %eax,0x4(%esp)
 8048b7e:	89 54 24 08          	mov    %edx,0x8(%esp)
 8048b82:	8d 45 f0             	lea    -0x10(%ebp),%eax
 8048b85:	89 04 24             	mov    %eax,(%esp)
 8048b88:	e8 ff 00 00 00       	call   8048c8c <_ZN5boost4_mfi3mf0Iv4testEC1EMS2_FvvE>
 8048b8d:	8d 45 ef             	lea    -0x11(%ebp),%eax
 8048b90:	89 44 24 0c          	mov    %eax,0xc(%esp)
 8048b94:	8b 45 f0             	mov    -0x10(%ebp),%eax
 8048b97:	8b 55 f4             	mov    -0xc(%ebp),%edx
 8048b9a:	89 44 24 04          	mov    %eax,0x4(%esp)
 8048b9e:	89 54 24 08          	mov    %edx,0x8(%esp)
 8048ba2:	8b 45 08             	mov    0x8(%ebp),%eax
 8048ba5:	89 04 24             	mov    %eax,(%esp)
 8048ba8:	e8 0b 01 00 00       	call   8048cb8 <_ZN5boost3_bi6bind_tIvNS_4_mfi3mf0Iv4testEENS0_5list1INS_3argILi1EEEEEEC1ES5_RKS9_>
}
 8048bad:	8b 45 08             	mov    0x8(%ebp),%eax
 8048bb0:	c9                   	leave  
 8048bb1:	c2 04 00             	ret    $0x4

08048bb4 <_ZN5boost3_bi6bind_tIvNS_4_mfi3mf0Iv4testEENS0_5list1INS_3argILi1EEEEEEclIP8test_sonEEvRKT_>:
    }

#if !defined(BOOST_NO_FUNCTION_TEMPLATE_ORDERING) \
 && !BOOST_WORKAROUND(__EDG_VERSION__, <= 238)

    template<class A1> result_type operator()(A1 const & a1)
 8048bb4:	55                   	push   %ebp
 8048bb5:	89 e5                	mov    %esp,%ebp
 8048bb7:	53                   	push   %ebx
 8048bb8:	83 ec 34             	sub    $0x34,%esp
    {
        list1<A1 const &> a(a1);
 8048bbb:	8b 45 0c             	mov    0xc(%ebp),%eax
 8048bbe:	89 44 24 04          	mov    %eax,0x4(%esp)
 8048bc2:	8d 45 f4             	lea    -0xc(%ebp),%eax
 8048bc5:	89 04 24             	mov    %eax,(%esp)
 8048bc8:	e8 ff 00 00 00       	call   8048ccc <_ZN5boost3_bi5list1IRKP8test_sonEC1ES5_>
        BOOST_BIND_RETURN l_(type<result_type>(), f_, a, 0);
 8048bcd:	8b 45 08             	mov    0x8(%ebp),%eax
 8048bd0:	8b 55 08             	mov    0x8(%ebp),%edx
 8048bd3:	8d 4a 08             	lea    0x8(%edx),%ecx
 8048bd6:	c7 44 24 10 00 00 00 	movl   $0x0,0x10(%esp)
 8048bdd:	00 
 8048bde:	8d 55 f4             	lea    -0xc(%ebp),%edx
 8048be1:	89 54 24 0c          	mov    %edx,0xc(%esp)
 8048be5:	89 44 24 08          	mov    %eax,0x8(%esp)
 8048be9:	88 5c 24 04          	mov    %bl,0x4(%esp)
 8048bed:	89 0c 24             	mov    %ecx,(%esp)
 8048bf0:	e8 f1 00 00 00       	call   8048ce6 <_ZN5boost3_bi5list1INS_3argILi1EEEEclINS_4_mfi3mf0Iv4testEENS1_IRKP8test_sonEEEEvNS0_4typeIvEERT_RT0_i>
    }
 8048bf5:	83 c4 34             	add    $0x34,%esp
 8048bf8:	5b                   	pop    %ebx
 8048bf9:	5d                   	pop    %ebp
 8048bfa:	c3                   	ret    
 8048bfb:	90                   	nop

08048bfc <_ZN5boost3_bi6bind_tIvNS_4_mfi3mf0Iv4testEENS0_5list1INS_3argILi1EEEEEEclI8test_sonEEvRT_>:
    {
        list0 a;
        BOOST_BIND_RETURN l_(type<result_type>(), f_, a, 0);
    }

    template<class A1> result_type operator()(A1 & a1)
 8048bfc:	55                   	push   %ebp
 8048bfd:	89 e5                	mov    %esp,%ebp
 8048bff:	53                   	push   %ebx
 8048c00:	83 ec 34             	sub    $0x34,%esp
    {
        list1<A1 &> a(a1);
 8048c03:	8b 45 0c             	mov    0xc(%ebp),%eax
 8048c06:	89 44 24 04          	mov    %eax,0x4(%esp)
 8048c0a:	8d 45 f4             	lea    -0xc(%ebp),%eax
 8048c0d:	89 04 24             	mov    %eax,(%esp)
 8048c10:	e8 13 01 00 00       	call   8048d28 <_ZN5boost3_bi5list1IR8test_sonEC1ES3_>
        BOOST_BIND_RETURN l_(type<result_type>(), f_, a, 0);
 8048c15:	8b 45 08             	mov    0x8(%ebp),%eax
 8048c18:	8b 55 08             	mov    0x8(%ebp),%edx
 8048c1b:	8d 4a 08             	lea    0x8(%edx),%ecx
 8048c1e:	c7 44 24 10 00 00 00 	movl   $0x0,0x10(%esp)
 8048c25:	00 
 8048c26:	8d 55 f4             	lea    -0xc(%ebp),%edx
 8048c29:	89 54 24 0c          	mov    %edx,0xc(%esp)
 8048c2d:	89 44 24 08          	mov    %eax,0x8(%esp)
 8048c31:	88 5c 24 04          	mov    %bl,0x4(%esp)
 8048c35:	89 0c 24             	mov    %ecx,(%esp)
 8048c38:	e8 05 01 00 00       	call   8048d42 <_ZN5boost3_bi5list1INS_3argILi1EEEEclINS_4_mfi3mf0Iv4testEENS1_IR8test_sonEEEEvNS0_4typeIvEERT_RT0_i>
    }
 8048c3d:	83 c4 34             	add    $0x34,%esp
 8048c40:	5b                   	pop    %ebx
 8048c41:	5d                   	pop    %ebp
 8048c42:	c3                   	ret    
 8048c43:	90                   	nop

08048c44 <_ZN5boost3_bi6bind_tIvNS_4_mfi3mf0Iv4testEENS0_5list1INS_3argILi1EEEEEEclIS4_EEvRT_>:
    {
        list0 a;
        BOOST_BIND_RETURN l_(type<result_type>(), f_, a, 0);
    }

    template<class A1> result_type operator()(A1 & a1)
 8048c44:	55                   	push   %ebp
 8048c45:	89 e5                	mov    %esp,%ebp
 8048c47:	53                   	push   %ebx
 8048c48:	83 ec 34             	sub    $0x34,%esp
    {
        list1<A1 &> a(a1);
 8048c4b:	8b 45 0c             	mov    0xc(%ebp),%eax
 8048c4e:	89 44 24 04          	mov    %eax,0x4(%esp)
 8048c52:	8d 45 f4             	lea    -0xc(%ebp),%eax
 8048c55:	89 04 24             	mov    %eax,(%esp)
 8048c58:	e8 27 01 00 00       	call   8048d84 <_ZN5boost3_bi5list1IR4testEC1ES3_>
        BOOST_BIND_RETURN l_(type<result_type>(), f_, a, 0);
 8048c5d:	8b 45 08             	mov    0x8(%ebp),%eax
 8048c60:	8b 55 08             	mov    0x8(%ebp),%edx
 8048c63:	8d 4a 08             	lea    0x8(%edx),%ecx
 8048c66:	c7 44 24 10 00 00 00 	movl   $0x0,0x10(%esp)
 8048c6d:	00 
 8048c6e:	8d 55 f4             	lea    -0xc(%ebp),%edx
 8048c71:	89 54 24 0c          	mov    %edx,0xc(%esp)
 8048c75:	89 44 24 08          	mov    %eax,0x8(%esp)
 8048c79:	88 5c 24 04          	mov    %bl,0x4(%esp)
 8048c7d:	89 0c 24             	mov    %ecx,(%esp)
 8048c80:	e8 19 01 00 00       	call   8048d9e <_ZN5boost3_bi5list1INS_3argILi1EEEEclINS_4_mfi3mf0Iv4testEENS1_IRS8_EEEEvNS0_4typeIvEERT_RT0_i>
    }
 8048c85:	83 c4 34             	add    $0x34,%esp
 8048c88:	5b                   	pop    %ebx
 8048c89:	5d                   	pop    %ebp
 8048c8a:	c3                   	ret    
 8048c8b:	90                   	nop

08048c8c <_ZN5boost4_mfi3mf0Iv4testEC1EMS2_FvvE>:
        BOOST_MEM_FN_RETURN (get_pointer(u)->*f_)();
    }

public:
    
    explicit BOOST_MEM_FN_NAME(mf0)(F f): f_(f) {}
 8048c8c:	55                   	push   %ebp
 8048c8d:	89 e5                	mov    %esp,%ebp
 8048c8f:	8b 4d 08             	mov    0x8(%ebp),%ecx
 8048c92:	8b 45 0c             	mov    0xc(%ebp),%eax
 8048c95:	8b 55 10             	mov    0x10(%ebp),%edx
 8048c98:	89 01                	mov    %eax,(%ecx)
 8048c9a:	89 51 04             	mov    %edx,0x4(%ecx)
 8048c9d:	5d                   	pop    %ebp
 8048c9e:	c3                   	ret    
 8048c9f:	90                   	nop

08048ca0 <_ZN5boost3_bi5list1INS_3argILi1EEEEC1ES3_>:

    typedef storage1< A1 > base_type;

public:

    explicit list1( A1 a1 ): base_type( a1 ) {}
 8048ca0:	55                   	push   %ebp
 8048ca1:	89 e5                	mov    %esp,%ebp
 8048ca3:	83 ec 18             	sub    $0x18,%esp
 8048ca6:	88 44 24 04          	mov    %al,0x4(%esp)
 8048caa:	8b 45 08             	mov    0x8(%ebp),%eax
 8048cad:	89 04 24             	mov    %eax,(%esp)
 8048cb0:	e8 2b 01 00 00       	call   8048de0 <_ZN5boost3_bi8storage1INS_3argILi1EEEEC1ES3_>
 8048cb5:	c9                   	leave  
 8048cb6:	c3                   	ret    
 8048cb7:	90                   	nop

08048cb8 <_ZN5boost3_bi6bind_tIvNS_4_mfi3mf0Iv4testEENS0_5list1INS_3argILi1EEEEEEC1ES5_RKS9_>:
{
public:

    typedef bind_t this_type;

    bind_t(F f, L const & l): f_(f), l_(l) {}
 8048cb8:	55                   	push   %ebp
 8048cb9:	89 e5                	mov    %esp,%ebp
 8048cbb:	8b 4d 08             	mov    0x8(%ebp),%ecx
 8048cbe:	8b 45 0c             	mov    0xc(%ebp),%eax
 8048cc1:	8b 55 10             	mov    0x10(%ebp),%edx
 8048cc4:	89 01                	mov    %eax,(%ecx)
 8048cc6:	89 51 04             	mov    %edx,0x4(%ecx)
 8048cc9:	5d                   	pop    %ebp
 8048cca:	c3                   	ret    
 8048ccb:	90                   	nop

08048ccc <_ZN5boost3_bi5list1IRKP8test_sonEC1ES5_>:

    typedef storage1< A1 > base_type;

public:

    explicit list1( A1 a1 ): base_type( a1 ) {}
 8048ccc:	55                   	push   %ebp
 8048ccd:	89 e5                	mov    %esp,%ebp
 8048ccf:	83 ec 18             	sub    $0x18,%esp
 8048cd2:	8b 45 08             	mov    0x8(%ebp),%eax
 8048cd5:	8b 55 0c             	mov    0xc(%ebp),%edx
 8048cd8:	89 54 24 04          	mov    %edx,0x4(%esp)
 8048cdc:	89 04 24             	mov    %eax,(%esp)
 8048cdf:	e8 02 01 00 00       	call   8048de6 <_ZN5boost3_bi8storage1IRKP8test_sonEC1ES5_>
 8048ce4:	c9                   	leave  
 8048ce5:	c3                   	ret    

08048ce6 <_ZN5boost3_bi5list1INS_3argILi1EEEEclINS_4_mfi3mf0Iv4testEENS1_IRKP8test_sonEEEEvNS0_4typeIvEERT_RT0_i>:
    template<class R, class F, class A> R operator()(type<R>, F const & f, A & a, long) const
    {
        return unwrapper<F const>::unwrap(f, 0)(a[base_type::a1_]);
    }

    template<class F, class A> void operator()(type<void>, F & f, A & a, int)
 8048ce6:	55                   	push   %ebp
 8048ce7:	89 e5                	mov    %esp,%ebp
 8048ce9:	53                   	push   %ebx
 8048cea:	83 ec 14             	sub    $0x14,%esp
    {
        unwrapper<F>::unwrap(f, 0)(a[base_type::a1_]);
 8048ced:	c7 44 24 04 fb 8d 04 	movl   $0x8048dfb,0x4(%esp)
 8048cf4:	08 
 8048cf5:	8b 45 14             	mov    0x14(%ebp),%eax
 8048cf8:	89 04 24             	mov    %eax,(%esp)
 8048cfb:	e8 14 01 00 00       	call   8048e14 <_ZNK5boost3_bi5list1IRKP8test_sonEixEPFNS_3argILi1EEEvE>
 8048d00:	89 c3                	mov    %eax,%ebx
 8048d02:	c7 44 24 04 00 00 00 	movl   $0x0,0x4(%esp)
 8048d09:	00 
 8048d0a:	8b 45 10             	mov    0x10(%ebp),%eax
 8048d0d:	89 04 24             	mov    %eax,(%esp)
 8048d10:	e8 de 00 00 00       	call   8048df3 <_ZN5boost3_bi9unwrapperINS_4_mfi3mf0Iv4testEEE6unwrapERS5_l>
 8048d15:	89 5c 24 04          	mov    %ebx,0x4(%esp)
 8048d19:	89 04 24             	mov    %eax,(%esp)
 8048d1c:	e8 fd 00 00 00       	call   8048e1e <_ZNK5boost4_mfi3mf0Iv4testEclIP8test_sonEEvRKT_>
    }
 8048d21:	83 c4 14             	add    $0x14,%esp
 8048d24:	5b                   	pop    %ebx
 8048d25:	5d                   	pop    %ebp
 8048d26:	c3                   	ret    
 8048d27:	90                   	nop

08048d28 <_ZN5boost3_bi5list1IR8test_sonEC1ES3_>:

    typedef storage1< A1 > base_type;

public:

    explicit list1( A1 a1 ): base_type( a1 ) {}
 8048d28:	55                   	push   %ebp
 8048d29:	89 e5                	mov    %esp,%ebp
 8048d2b:	83 ec 18             	sub    $0x18,%esp
 8048d2e:	8b 45 08             	mov    0x8(%ebp),%eax
 8048d31:	8b 55 0c             	mov    0xc(%ebp),%edx
 8048d34:	89 54 24 04          	mov    %edx,0x4(%esp)
 8048d38:	89 04 24             	mov    %eax,(%esp)
 8048d3b:	e8 06 01 00 00       	call   8048e46 <_ZN5boost3_bi8storage1IR8test_sonEC1ES3_>
 8048d40:	c9                   	leave  
 8048d41:	c3                   	ret    

08048d42 <_ZN5boost3_bi5list1INS_3argILi1EEEEclINS_4_mfi3mf0Iv4testEENS1_IR8test_sonEEEEvNS0_4typeIvEERT_RT0_i>:
    template<class R, class F, class A> R operator()(type<R>, F const & f, A & a, long) const
    {
        return unwrapper<F const>::unwrap(f, 0)(a[base_type::a1_]);
    }

    template<class F, class A> void operator()(type<void>, F & f, A & a, int)
 8048d42:	55                   	push   %ebp
 8048d43:	89 e5                	mov    %esp,%ebp
 8048d45:	53                   	push   %ebx
 8048d46:	83 ec 14             	sub    $0x14,%esp
    {
        unwrapper<F>::unwrap(f, 0)(a[base_type::a1_]);
 8048d49:	c7 44 24 04 fb 8d 04 	movl   $0x8048dfb,0x4(%esp)
 8048d50:	08 
 8048d51:	8b 45 14             	mov    0x14(%ebp),%eax
 8048d54:	89 04 24             	mov    %eax,(%esp)
 8048d57:	e8 f8 00 00 00       	call   8048e54 <_ZNK5boost3_bi5list1IR8test_sonEixEPFNS_3argILi1EEEvE>
 8048d5c:	89 c3                	mov    %eax,%ebx
 8048d5e:	c7 44 24 04 00 00 00 	movl   $0x0,0x4(%esp)
 8048d65:	00 
 8048d66:	8b 45 10             	mov    0x10(%ebp),%eax
 8048d69:	89 04 24             	mov    %eax,(%esp)
 8048d6c:	e8 82 00 00 00       	call   8048df3 <_ZN5boost3_bi9unwrapperINS_4_mfi3mf0Iv4testEEE6unwrapERS5_l>
 8048d71:	89 5c 24 04          	mov    %ebx,0x4(%esp)
 8048d75:	89 04 24             	mov    %eax,(%esp)
 8048d78:	e8 e1 00 00 00       	call   8048e5e <_ZNK5boost4_mfi3mf0Iv4testEclI8test_sonEEvRT_>
    }
 8048d7d:	83 c4 14             	add    $0x14,%esp
 8048d80:	5b                   	pop    %ebx
 8048d81:	5d                   	pop    %ebp
 8048d82:	c3                   	ret    
 8048d83:	90                   	nop

08048d84 <_ZN5boost3_bi5list1IR4testEC1ES3_>:

    typedef storage1< A1 > base_type;

public:

    explicit list1( A1 a1 ): base_type( a1 ) {}
 8048d84:	55                   	push   %ebp
 8048d85:	89 e5                	mov    %esp,%ebp
 8048d87:	83 ec 18             	sub    $0x18,%esp
 8048d8a:	8b 45 08             	mov    0x8(%ebp),%eax
 8048d8d:	8b 55 0c             	mov    0xc(%ebp),%edx
 8048d90:	89 54 24 04          	mov    %edx,0x4(%esp)
 8048d94:	89 04 24             	mov    %eax,(%esp)
 8048d97:	e8 ea 00 00 00       	call   8048e86 <_ZN5boost3_bi8storage1IR4testEC1ES3_>
 8048d9c:	c9                   	leave  
 8048d9d:	c3                   	ret    

08048d9e <_ZN5boost3_bi5list1INS_3argILi1EEEEclINS_4_mfi3mf0Iv4testEENS1_IRS8_EEEEvNS0_4typeIvEERT_RT0_i>:
    template<class R, class F, class A> R operator()(type<R>, F const & f, A & a, long) const
    {
        return unwrapper<F const>::unwrap(f, 0)(a[base_type::a1_]);
    }

    template<class F, class A> void operator()(type<void>, F & f, A & a, int)
 8048d9e:	55                   	push   %ebp
 8048d9f:	89 e5                	mov    %esp,%ebp
 8048da1:	53                   	push   %ebx
 8048da2:	83 ec 14             	sub    $0x14,%esp
    {
        unwrapper<F>::unwrap(f, 0)(a[base_type::a1_]);
 8048da5:	c7 44 24 04 fb 8d 04 	movl   $0x8048dfb,0x4(%esp)
 8048dac:	08 
 8048dad:	8b 45 14             	mov    0x14(%ebp),%eax
 8048db0:	89 04 24             	mov    %eax,(%esp)
 8048db3:	e8 dc 00 00 00       	call   8048e94 <_ZNK5boost3_bi5list1IR4testEixEPFNS_3argILi1EEEvE>
 8048db8:	89 c3                	mov    %eax,%ebx
 8048dba:	c7 44 24 04 00 00 00 	movl   $0x0,0x4(%esp)
 8048dc1:	00 
 8048dc2:	8b 45 10             	mov    0x10(%ebp),%eax
 8048dc5:	89 04 24             	mov    %eax,(%esp)
 8048dc8:	e8 26 00 00 00       	call   8048df3 <_ZN5boost3_bi9unwrapperINS_4_mfi3mf0Iv4testEEE6unwrapERS5_l>
 8048dcd:	89 5c 24 04          	mov    %ebx,0x4(%esp)
 8048dd1:	89 04 24             	mov    %eax,(%esp)
 8048dd4:	e8 c5 00 00 00       	call   8048e9e <_ZNK5boost4_mfi3mf0Iv4testEclERS2_>
    }
 8048dd9:	83 c4 14             	add    $0x14,%esp
 8048ddc:	5b                   	pop    %ebx
 8048ddd:	5d                   	pop    %ebp
 8048dde:	c3                   	ret    
 8048ddf:	90                   	nop

08048de0 <_ZN5boost3_bi8storage1INS_3argILi1EEEEC1ES3_>:

#if !defined( BOOST_NO_TEMPLATE_PARTIAL_SPECIALIZATION ) && !defined( __BORLANDC__ )

template<int I> struct storage1< boost::arg<I> >
{
    explicit storage1( boost::arg<I> ) {}
 8048de0:	55                   	push   %ebp
 8048de1:	89 e5                	mov    %esp,%ebp
 8048de3:	5d                   	pop    %ebp
 8048de4:	c3                   	ret    
 8048de5:	90                   	nop

08048de6 <_ZN5boost3_bi8storage1IRKP8test_sonEC1ES5_>:

// 1

template<class A1> struct storage1
{
    explicit storage1( A1 a1 ): a1_( a1 ) {}
 8048de6:	55                   	push   %ebp
 8048de7:	89 e5                	mov    %esp,%ebp
 8048de9:	8b 45 08             	mov    0x8(%ebp),%eax
 8048dec:	8b 55 0c             	mov    0xc(%ebp),%edx
 8048def:	89 10                	mov    %edx,(%eax)
 8048df1:	5d                   	pop    %ebp
 8048df2:	c3                   	ret    

08048df3 <_ZN5boost3_bi9unwrapperINS_4_mfi3mf0Iv4testEEE6unwrapERS5_l>:

// unwrap

template<class F> struct unwrapper
{
    static inline F & unwrap( F & f, long )
 8048df3:	55                   	push   %ebp
 8048df4:	89 e5                	mov    %esp,%ebp
    {
        return f;
 8048df6:	8b 45 08             	mov    0x8(%ebp),%eax
    }
 8048df9:	5d                   	pop    %ebp
 8048dfa:	c3                   	ret    

08048dfb <_ZN5boost3_bi8storage1INS_3argILi1EEEE3a1_Ev>:
{
    explicit storage1( boost::arg<I> ) {}

    template<class V> void accept(V &) const { }

    static boost::arg<I> a1_() { return boost::arg<I>(); }
 8048dfb:	55                   	push   %ebp
 8048dfc:	89 e5                	mov    %esp,%ebp
 8048dfe:	83 ec 18             	sub    $0x18,%esp
 8048e01:	8b 45 08             	mov    0x8(%ebp),%eax
 8048e04:	89 04 24             	mov    %eax,(%esp)
 8048e07:	e8 1e fd ff ff       	call   8048b2a <_ZN5boost3argILi1EEC1Ev>
 8048e0c:	8b 45 08             	mov    0x8(%ebp),%eax
 8048e0f:	c9                   	leave  
 8048e10:	c2 04 00             	ret    $0x4
 8048e13:	90                   	nop

08048e14 <_ZNK5boost3_bi5list1IRKP8test_sonEixEPFNS_3argILi1EEEvE>:

    explicit list1( A1 a1 ): base_type( a1 ) {}

    A1 operator[] (boost::arg<1>) const { return base_type::a1_; }

    A1 operator[] (boost::arg<1> (*) ()) const { return base_type::a1_; }
 8048e14:	55                   	push   %ebp
 8048e15:	89 e5                	mov    %esp,%ebp
 8048e17:	8b 45 08             	mov    0x8(%ebp),%eax
 8048e1a:	8b 00                	mov    (%eax),%eax
 8048e1c:	5d                   	pop    %ebp
 8048e1d:	c3                   	ret    

08048e1e <_ZNK5boost4_mfi3mf0Iv4testEclIP8test_sonEEvRKT_>:
        BOOST_MEM_FN_RETURN call(u, p);
    }

#ifdef BOOST_MEM_FN_ENABLE_CONST_OVERLOADS

    template<class U> R operator()(U const & u) const
 8048e1e:	55                   	push   %ebp
 8048e1f:	89 e5                	mov    %esp,%ebp
 8048e21:	83 ec 28             	sub    $0x28,%esp
    {
        U const * p = 0;
 8048e24:	c7 45 f4 00 00 00 00 	movl   $0x0,-0xc(%ebp)
        BOOST_MEM_FN_RETURN call(u, p);
 8048e2b:	8b 45 f4             	mov    -0xc(%ebp),%eax
 8048e2e:	89 44 24 08          	mov    %eax,0x8(%esp)
 8048e32:	8b 45 0c             	mov    0xc(%ebp),%eax
 8048e35:	89 44 24 04          	mov    %eax,0x4(%esp)
 8048e39:	8b 45 08             	mov    0x8(%ebp),%eax
 8048e3c:	89 04 24             	mov    %eax,(%esp)
 8048e3f:	e8 a2 00 00 00       	call   8048ee6 <_ZNK5boost4_mfi3mf0Iv4testE4callIKP8test_sonEEvRT_PKv>
    }
 8048e44:	c9                   	leave  
 8048e45:	c3                   	ret    

08048e46 <_ZN5boost3_bi8storage1IR8test_sonEC1ES3_>:

// 1

template<class A1> struct storage1
{
    explicit storage1( A1 a1 ): a1_( a1 ) {}
 8048e46:	55                   	push   %ebp
 8048e47:	89 e5                	mov    %esp,%ebp
 8048e49:	8b 45 08             	mov    0x8(%ebp),%eax
 8048e4c:	8b 55 0c             	mov    0xc(%ebp),%edx
 8048e4f:	89 10                	mov    %edx,(%eax)
 8048e51:	5d                   	pop    %ebp
 8048e52:	c3                   	ret    
 8048e53:	90                   	nop

08048e54 <_ZNK5boost3_bi5list1IR8test_sonEixEPFNS_3argILi1EEEvE>:
 8048e54:	55                   	push   %ebp
 8048e55:	89 e5                	mov    %esp,%ebp
 8048e57:	8b 45 08             	mov    0x8(%ebp),%eax
 8048e5a:	8b 00                	mov    (%eax),%eax
 8048e5c:	5d                   	pop    %ebp
 8048e5d:	c3                   	ret    

08048e5e <_ZNK5boost4_mfi3mf0Iv4testEclI8test_sonEEvRT_>:
    R operator()(T * p) const
    {
        BOOST_MEM_FN_RETURN (p->*f_)();
    }

    template<class U> R operator()(U & u) const
 8048e5e:	55                   	push   %ebp
 8048e5f:	89 e5                	mov    %esp,%ebp
 8048e61:	83 ec 28             	sub    $0x28,%esp
    {
        U const * p = 0;
 8048e64:	c7 45 f4 00 00 00 00 	movl   $0x0,-0xc(%ebp)
        BOOST_MEM_FN_RETURN call(u, p);
 8048e6b:	8b 45 f4             	mov    -0xc(%ebp),%eax
 8048e6e:	89 44 24 08          	mov    %eax,0x8(%esp)
 8048e72:	8b 45 0c             	mov    0xc(%ebp),%eax
 8048e75:	89 44 24 04          	mov    %eax,0x4(%esp)
 8048e79:	8b 45 08             	mov    0x8(%ebp),%eax
 8048e7c:	89 04 24             	mov    %eax,(%esp)
 8048e7f:	e8 b4 00 00 00       	call   8048f38 <_ZNK5boost4_mfi3mf0Iv4testE4callI8test_sonEEvRT_PKS2_>
    }
 8048e84:	c9                   	leave  
 8048e85:	c3                   	ret    

08048e86 <_ZN5boost3_bi8storage1IR4testEC1ES3_>:
 8048e86:	55                   	push   %ebp
 8048e87:	89 e5                	mov    %esp,%ebp
 8048e89:	8b 45 08             	mov    0x8(%ebp),%eax
 8048e8c:	8b 55 0c             	mov    0xc(%ebp),%edx
 8048e8f:	89 10                	mov    %edx,(%eax)
 8048e91:	5d                   	pop    %ebp
 8048e92:	c3                   	ret    
 8048e93:	90                   	nop

08048e94 <_ZNK5boost3_bi5list1IR4testEixEPFNS_3argILi1EEEvE>:
 8048e94:	55                   	push   %ebp
 8048e95:	89 e5                	mov    %esp,%ebp
 8048e97:	8b 45 08             	mov    0x8(%ebp),%eax
 8048e9a:	8b 00                	mov    (%eax),%eax
 8048e9c:	5d                   	pop    %ebp
 8048e9d:	c3                   	ret    

08048e9e <_ZNK5boost4_mfi3mf0Iv4testEclERS2_>:
        BOOST_MEM_FN_RETURN call(u, p);
    }

#endif

    R operator()(T & t) const
 8048e9e:	55                   	push   %ebp
 8048e9f:	89 e5                	mov    %esp,%ebp
 8048ea1:	83 ec 18             	sub    $0x18,%esp
    {
        BOOST_MEM_FN_RETURN (t.*f_)();
 8048ea4:	8b 45 08             	mov    0x8(%ebp),%eax
 8048ea7:	8b 00                	mov    (%eax),%eax
 8048ea9:	83 e0 01             	and    $0x1,%eax
 8048eac:	85 c0                	test   %eax,%eax
 8048eae:	75 07                	jne    8048eb7 <_ZNK5boost4_mfi3mf0Iv4testEclERS2_+0x19>
 8048eb0:	8b 45 08             	mov    0x8(%ebp),%eax
 8048eb3:	8b 00                	mov    (%eax),%eax
 8048eb5:	eb 1b                	jmp    8048ed2 <_ZNK5boost4_mfi3mf0Iv4testEclERS2_+0x34>
 8048eb7:	8b 45 08             	mov    0x8(%ebp),%eax
 8048eba:	8b 40 04             	mov    0x4(%eax),%eax
 8048ebd:	89 c2                	mov    %eax,%edx
 8048ebf:	8b 45 0c             	mov    0xc(%ebp),%eax
 8048ec2:	01 d0                	add    %edx,%eax
 8048ec4:	8b 10                	mov    (%eax),%edx
 8048ec6:	8b 45 08             	mov    0x8(%ebp),%eax
 8048ec9:	8b 00                	mov    (%eax),%eax
 8048ecb:	83 e8 01             	sub    $0x1,%eax
 8048ece:	01 d0                	add    %edx,%eax
 8048ed0:	8b 00                	mov    (%eax),%eax
 8048ed2:	8b 55 08             	mov    0x8(%ebp),%edx
 8048ed5:	8b 52 04             	mov    0x4(%edx),%edx
 8048ed8:	89 d1                	mov    %edx,%ecx
 8048eda:	8b 55 0c             	mov    0xc(%ebp),%edx
 8048edd:	01 ca                	add    %ecx,%edx
 8048edf:	89 14 24             	mov    %edx,(%esp)
 8048ee2:	ff d0                	call   *%eax
    }
 8048ee4:	c9                   	leave  
 8048ee5:	c3                   	ret    

08048ee6 <_ZNK5boost4_mfi3mf0Iv4testE4callIKP8test_sonEEvRT_PKv>:
    template<class U> R call(U & u, T const *) const
    {
        BOOST_MEM_FN_RETURN (u.*f_)();
    }

    template<class U> R call(U & u, void const *) const
 8048ee6:	55                   	push   %ebp
 8048ee7:	89 e5                	mov    %esp,%ebp
 8048ee9:	83 ec 18             	sub    $0x18,%esp
    {
        BOOST_MEM_FN_RETURN (get_pointer(u)->*f_)();
 8048eec:	8b 45 0c             	mov    0xc(%ebp),%eax
 8048eef:	8b 00                	mov    (%eax),%eax
 8048ef1:	89 04 24             	mov    %eax,(%esp)
 8048ef4:	e8 83 00 00 00       	call   8048f7c <_ZN5boost11get_pointerI8test_sonEEPT_S3_>
 8048ef9:	89 c2                	mov    %eax,%edx
 8048efb:	8b 45 08             	mov    0x8(%ebp),%eax
 8048efe:	8b 00                	mov    (%eax),%eax
 8048f00:	83 e0 01             	and    $0x1,%eax
 8048f03:	85 c0                	test   %eax,%eax
 8048f05:	75 07                	jne    8048f0e <_ZNK5boost4_mfi3mf0Iv4testE4callIKP8test_sonEEvRT_PKv+0x28>
 8048f07:	8b 45 08             	mov    0x8(%ebp),%eax
 8048f0a:	8b 00                	mov    (%eax),%eax
 8048f0c:	eb 18                	jmp    8048f26 <_ZNK5boost4_mfi3mf0Iv4testE4callIKP8test_sonEEvRT_PKv+0x40>
 8048f0e:	89 d1                	mov    %edx,%ecx
 8048f10:	8b 45 08             	mov    0x8(%ebp),%eax
 8048f13:	8b 40 04             	mov    0x4(%eax),%eax
 8048f16:	01 c8                	add    %ecx,%eax
 8048f18:	8b 08                	mov    (%eax),%ecx
 8048f1a:	8b 45 08             	mov    0x8(%ebp),%eax
 8048f1d:	8b 00                	mov    (%eax),%eax
 8048f1f:	83 e8 01             	sub    $0x1,%eax
 8048f22:	01 c8                	add    %ecx,%eax
 8048f24:	8b 00                	mov    (%eax),%eax
 8048f26:	89 d1                	mov    %edx,%ecx
 8048f28:	8b 55 08             	mov    0x8(%ebp),%edx
 8048f2b:	8b 52 04             	mov    0x4(%edx),%edx
 8048f2e:	01 ca                	add    %ecx,%edx
 8048f30:	89 14 24             	mov    %edx,(%esp)
 8048f33:	ff d0                	call   *%eax
    }
 8048f35:	c9                   	leave  
 8048f36:	c3                   	ret    
 8048f37:	90                   	nop

08048f38 <_ZNK5boost4_mfi3mf0Iv4testE4callI8test_sonEEvRT_PKS2_>:
private:
    
    BOOST_MEM_FN_TYPEDEF(R (BOOST_MEM_FN_CC T::*F) ())
    F f_;

    template<class U> R call(U & u, T const *) const
 8048f38:	55                   	push   %ebp
 8048f39:	89 e5                	mov    %esp,%ebp
 8048f3b:	83 ec 18             	sub    $0x18,%esp
    {
        BOOST_MEM_FN_RETURN (u.*f_)();
 8048f3e:	8b 45 08             	mov    0x8(%ebp),%eax
 8048f41:	8b 00                	mov    (%eax),%eax
 8048f43:	83 e0 01             	and    $0x1,%eax
 8048f46:	85 c0                	test   %eax,%eax
 8048f48:	75 07                	jne    8048f51 <_ZNK5boost4_mfi3mf0Iv4testE4callI8test_sonEEvRT_PKS2_+0x19>
 8048f4a:	8b 45 08             	mov    0x8(%ebp),%eax
 8048f4d:	8b 00                	mov    (%eax),%eax
 8048f4f:	eb 19                	jmp    8048f6a <_ZNK5boost4_mfi3mf0Iv4testE4callI8test_sonEEvRT_PKS2_+0x32>
 8048f51:	8b 55 0c             	mov    0xc(%ebp),%edx
 8048f54:	8b 45 08             	mov    0x8(%ebp),%eax
 8048f57:	8b 40 04             	mov    0x4(%eax),%eax
 8048f5a:	01 d0                	add    %edx,%eax
 8048f5c:	8b 10                	mov    (%eax),%edx
 8048f5e:	8b 45 08             	mov    0x8(%ebp),%eax
 8048f61:	8b 00                	mov    (%eax),%eax
 8048f63:	83 e8 01             	sub    $0x1,%eax
 8048f66:	01 d0                	add    %edx,%eax
 8048f68:	8b 00                	mov    (%eax),%eax
 8048f6a:	8b 4d 0c             	mov    0xc(%ebp),%ecx
 8048f6d:	8b 55 08             	mov    0x8(%ebp),%edx
 8048f70:	8b 52 04             	mov    0x4(%edx),%edx
 8048f73:	01 ca                	add    %ecx,%edx
 8048f75:	89 14 24             	mov    %edx,(%esp)
 8048f78:	ff d0                	call   *%eax
    }
 8048f7a:	c9                   	leave  
 8048f7b:	c3                   	ret    

08048f7c <_ZN5boost11get_pointerI8test_sonEEPT_S3_>:

namespace boost { 

// get_pointer(p) extracts a ->* capable pointer from p

template<class T> T * get_pointer(T * p)
 8048f7c:	55                   	push   %ebp
 8048f7d:	89 e5                	mov    %esp,%ebp
{
    return p;
 8048f7f:	8b 45 08             	mov    0x8(%ebp),%eax
}
 8048f82:	5d                   	pop    %ebp
 8048f83:	c3                   	ret    
 8048f84:	66 90                	xchg   %ax,%ax
 8048f86:	66 90                	xchg   %ax,%ax
 8048f88:	66 90                	xchg   %ax,%ax
 8048f8a:	66 90                	xchg   %ax,%ax
 8048f8c:	66 90                	xchg   %ax,%ax
 8048f8e:	66 90                	xchg   %ax,%ax

08048f90 <__libc_csu_init>:
 8048f90:	55                   	push   %ebp
 8048f91:	57                   	push   %edi
 8048f92:	31 ff                	xor    %edi,%edi
 8048f94:	56                   	push   %esi
 8048f95:	53                   	push   %ebx
 8048f96:	e8 55 f7 ff ff       	call   80486f0 <__x86.get_pc_thunk.bx>
 8048f9b:	81 c3 65 20 00 00    	add    $0x2065,%ebx
 8048fa1:	83 ec 1c             	sub    $0x1c,%esp
 8048fa4:	8b 6c 24 30          	mov    0x30(%esp),%ebp
 8048fa8:	8d b3 04 ff ff ff    	lea    -0xfc(%ebx),%esi
 8048fae:	e8 35 f6 ff ff       	call   80485e8 <_init>
 8048fb3:	8d 83 fc fe ff ff    	lea    -0x104(%ebx),%eax
 8048fb9:	29 c6                	sub    %eax,%esi
 8048fbb:	c1 fe 02             	sar    $0x2,%esi
 8048fbe:	85 f6                	test   %esi,%esi
 8048fc0:	74 27                	je     8048fe9 <__libc_csu_init+0x59>
 8048fc2:	8d b6 00 00 00 00    	lea    0x0(%esi),%esi
 8048fc8:	8b 44 24 38          	mov    0x38(%esp),%eax
 8048fcc:	89 2c 24             	mov    %ebp,(%esp)
 8048fcf:	89 44 24 08          	mov    %eax,0x8(%esp)
 8048fd3:	8b 44 24 34          	mov    0x34(%esp),%eax
 8048fd7:	89 44 24 04          	mov    %eax,0x4(%esp)
 8048fdb:	ff 94 bb fc fe ff ff 	call   *-0x104(%ebx,%edi,4)
 8048fe2:	83 c7 01             	add    $0x1,%edi
 8048fe5:	39 f7                	cmp    %esi,%edi
 8048fe7:	75 df                	jne    8048fc8 <__libc_csu_init+0x38>
 8048fe9:	83 c4 1c             	add    $0x1c,%esp
 8048fec:	5b                   	pop    %ebx
 8048fed:	5e                   	pop    %esi
 8048fee:	5f                   	pop    %edi
 8048fef:	5d                   	pop    %ebp
 8048ff0:	c3                   	ret    
 8048ff1:	eb 0d                	jmp    8049000 <__libc_csu_fini>
 8048ff3:	90                   	nop
 8048ff4:	90                   	nop
 8048ff5:	90                   	nop
 8048ff6:	90                   	nop
 8048ff7:	90                   	nop
 8048ff8:	90                   	nop
 8048ff9:	90                   	nop
 8048ffa:	90                   	nop
 8048ffb:	90                   	nop
 8048ffc:	90                   	nop
 8048ffd:	90                   	nop
 8048ffe:	90                   	nop
 8048fff:	90                   	nop

08049000 <__libc_csu_fini>:
 8049000:	f3 c3                	repz ret 

Disassembly of section .fini:

08049004 <_fini>:
 8049004:	53                   	push   %ebx
 8049005:	83 ec 08             	sub    $0x8,%esp
 8049008:	e8 e3 f6 ff ff       	call   80486f0 <__x86.get_pc_thunk.bx>
 804900d:	81 c3 f3 1f 00 00    	add    $0x1ff3,%ebx
 8049013:	83 c4 08             	add    $0x8,%esp
 8049016:	5b                   	pop    %ebx
 8049017:	c3                   	ret    
