
test:     file format elf32-i386


Disassembly of section .init:

08048294 <_init>:
 8048294:	53                   	push   %ebx
 8048295:	83 ec 08             	sub    $0x8,%esp
 8048298:	e8 83 00 00 00       	call   8048320 <__x86.get_pc_thunk.bx>
 804829d:	81 c3 63 1d 00 00    	add    $0x1d63,%ebx
 80482a3:	8b 83 fc ff ff ff    	mov    -0x4(%ebx),%eax
 80482a9:	85 c0                	test   %eax,%eax
 80482ab:	74 05                	je     80482b2 <_init+0x1e>
 80482ad:	e8 1e 00 00 00       	call   80482d0 <__gmon_start__@plt>
 80482b2:	83 c4 08             	add    $0x8,%esp
 80482b5:	5b                   	pop    %ebx
 80482b6:	c3                   	ret    

Disassembly of section .plt:

080482c0 <__gmon_start__@plt-0x10>:
 80482c0:	ff 35 04 a0 04 08    	pushl  0x804a004
 80482c6:	ff 25 08 a0 04 08    	jmp    *0x804a008
 80482cc:	00 00                	add    %al,(%eax)
	...

080482d0 <__gmon_start__@plt>:
 80482d0:	ff 25 0c a0 04 08    	jmp    *0x804a00c
 80482d6:	68 00 00 00 00       	push   $0x0
 80482db:	e9 e0 ff ff ff       	jmp    80482c0 <_init+0x2c>

080482e0 <__libc_start_main@plt>:
 80482e0:	ff 25 10 a0 04 08    	jmp    *0x804a010
 80482e6:	68 08 00 00 00       	push   $0x8
 80482eb:	e9 d0 ff ff ff       	jmp    80482c0 <_init+0x2c>

Disassembly of section .text:

080482f0 <main>:
}

int main()
{
    test();
}
 80482f0:	31 c0                	xor    %eax,%eax
 80482f2:	c3                   	ret    

080482f3 <_start>:
 80482f3:	31 ed                	xor    %ebp,%ebp
 80482f5:	5e                   	pop    %esi
 80482f6:	89 e1                	mov    %esp,%ecx
 80482f8:	83 e4 f0             	and    $0xfffffff0,%esp
 80482fb:	50                   	push   %eax
 80482fc:	54                   	push   %esp
 80482fd:	52                   	push   %edx
 80482fe:	68 a0 84 04 08       	push   $0x80484a0
 8048303:	68 30 84 04 08       	push   $0x8048430
 8048308:	51                   	push   %ecx
 8048309:	56                   	push   %esi
 804830a:	68 f0 82 04 08       	push   $0x80482f0
 804830f:	e8 cc ff ff ff       	call   80482e0 <__libc_start_main@plt>
 8048314:	f4                   	hlt    
 8048315:	66 90                	xchg   %ax,%ax
 8048317:	66 90                	xchg   %ax,%ax
 8048319:	66 90                	xchg   %ax,%ax
 804831b:	66 90                	xchg   %ax,%ax
 804831d:	66 90                	xchg   %ax,%ax
 804831f:	90                   	nop

08048320 <__x86.get_pc_thunk.bx>:
 8048320:	8b 1c 24             	mov    (%esp),%ebx
 8048323:	c3                   	ret    
 8048324:	66 90                	xchg   %ax,%ax
 8048326:	66 90                	xchg   %ax,%ax
 8048328:	66 90                	xchg   %ax,%ax
 804832a:	66 90                	xchg   %ax,%ax
 804832c:	66 90                	xchg   %ax,%ax
 804832e:	66 90                	xchg   %ax,%ax

08048330 <deregister_tm_clones>:
 8048330:	b8 1f a0 04 08       	mov    $0x804a01f,%eax
 8048335:	2d 1c a0 04 08       	sub    $0x804a01c,%eax
 804833a:	83 f8 06             	cmp    $0x6,%eax
 804833d:	77 01                	ja     8048340 <deregister_tm_clones+0x10>
 804833f:	c3                   	ret    
 8048340:	b8 00 00 00 00       	mov    $0x0,%eax
 8048345:	85 c0                	test   %eax,%eax
 8048347:	74 f6                	je     804833f <deregister_tm_clones+0xf>
 8048349:	55                   	push   %ebp
 804834a:	89 e5                	mov    %esp,%ebp
 804834c:	83 ec 18             	sub    $0x18,%esp
 804834f:	c7 04 24 1c a0 04 08 	movl   $0x804a01c,(%esp)
 8048356:	ff d0                	call   *%eax
 8048358:	c9                   	leave  
 8048359:	c3                   	ret    
 804835a:	8d b6 00 00 00 00    	lea    0x0(%esi),%esi

08048360 <register_tm_clones>:
 8048360:	b8 1c a0 04 08       	mov    $0x804a01c,%eax
 8048365:	2d 1c a0 04 08       	sub    $0x804a01c,%eax
 804836a:	c1 f8 02             	sar    $0x2,%eax
 804836d:	89 c2                	mov    %eax,%edx
 804836f:	c1 ea 1f             	shr    $0x1f,%edx
 8048372:	01 d0                	add    %edx,%eax
 8048374:	d1 f8                	sar    %eax
 8048376:	75 01                	jne    8048379 <register_tm_clones+0x19>
 8048378:	c3                   	ret    
 8048379:	ba 00 00 00 00       	mov    $0x0,%edx
 804837e:	85 d2                	test   %edx,%edx
 8048380:	74 f6                	je     8048378 <register_tm_clones+0x18>
 8048382:	55                   	push   %ebp
 8048383:	89 e5                	mov    %esp,%ebp
 8048385:	83 ec 18             	sub    $0x18,%esp
 8048388:	89 44 24 04          	mov    %eax,0x4(%esp)
 804838c:	c7 04 24 1c a0 04 08 	movl   $0x804a01c,(%esp)
 8048393:	ff d2                	call   *%edx
 8048395:	c9                   	leave  
 8048396:	c3                   	ret    
 8048397:	89 f6                	mov    %esi,%esi
 8048399:	8d bc 27 00 00 00 00 	lea    0x0(%edi,%eiz,1),%edi

080483a0 <__do_global_dtors_aux>:
 80483a0:	80 3d 1c a0 04 08 00 	cmpb   $0x0,0x804a01c
 80483a7:	75 13                	jne    80483bc <__do_global_dtors_aux+0x1c>
 80483a9:	55                   	push   %ebp
 80483aa:	89 e5                	mov    %esp,%ebp
 80483ac:	83 ec 08             	sub    $0x8,%esp
 80483af:	e8 7c ff ff ff       	call   8048330 <deregister_tm_clones>
 80483b4:	c6 05 1c a0 04 08 01 	movb   $0x1,0x804a01c
 80483bb:	c9                   	leave  
 80483bc:	f3 c3                	repz ret 
 80483be:	66 90                	xchg   %ax,%ax

080483c0 <frame_dummy>:
 80483c0:	a1 10 9f 04 08       	mov    0x8049f10,%eax
 80483c5:	85 c0                	test   %eax,%eax
 80483c7:	74 1f                	je     80483e8 <frame_dummy+0x28>
 80483c9:	b8 00 00 00 00       	mov    $0x0,%eax
 80483ce:	85 c0                	test   %eax,%eax
 80483d0:	74 16                	je     80483e8 <frame_dummy+0x28>
 80483d2:	55                   	push   %ebp
 80483d3:	89 e5                	mov    %esp,%ebp
 80483d5:	83 ec 18             	sub    $0x18,%esp
 80483d8:	c7 04 24 10 9f 04 08 	movl   $0x8049f10,(%esp)
 80483df:	ff d0                	call   *%eax
 80483e1:	c9                   	leave  
 80483e2:	e9 79 ff ff ff       	jmp    8048360 <register_tm_clones>
 80483e7:	90                   	nop
 80483e8:	e9 73 ff ff ff       	jmp    8048360 <register_tm_clones>
 80483ed:	66 90                	xchg   %ax,%ax
 80483ef:	90                   	nop

080483f0 <_Z4testv>:
int test() {
    int count = 0;
    for(int i=0; i<0x1234; i++)
        count++;
    return count;
}
 80483f0:	b8 34 12 00 00       	mov    $0x1234,%eax
 80483f5:	c3                   	ret    
 80483f6:	8d 76 00             	lea    0x0(%esi),%esi
 80483f9:	8d bc 27 00 00 00 00 	lea    0x0(%edi,%eiz,1),%edi

08048400 <_Z5test2v>:
int test2() {
 8048400:	83 ec 10             	sub    $0x10,%esp
    volatile int count = 0;
 8048403:	b8 34 12 00 00       	mov    $0x1234,%eax
 8048408:	c7 44 24 0c 00 00 00 	movl   $0x0,0xc(%esp)  //count is initialized as 0
 804840f:	00 
    for(int i=0; i<0x1234; i++)
        count++;
 8048410:	8b 54 24 0c          	mov    0xc(%esp),%edx // 1. Load count to EDX
 8048414:	83 c2 01             	add    $0x1,%edx      // 2. Count++ operation
        count++;
    return count;
}
int test2() {
    volatile int count = 0;
    for(int i=0; i<0x1234; i++)
 8048417:	83 e8 01             	sub    $0x1,%eax
        count++;
 804841a:	89 54 24 0c          	mov    %edx,0xc(%esp) //3. Store EDX to count
        count++;
    return count;
}
int test2() {
    volatile int count = 0;
    for(int i=0; i<0x1234; i++)
 804841e:	75 f0                	jne    8048410 <_Z5test2v+0x10>
        count++;
    return count;
 8048420:	8b 44 24 0c          	mov    0xc(%esp),%eax
}
 8048424:	83 c4 10             	add    $0x10,%esp
 8048427:	c3                   	ret    
 8048428:	66 90                	xchg   %ax,%ax
 804842a:	66 90                	xchg   %ax,%ax
 804842c:	66 90                	xchg   %ax,%ax
 804842e:	66 90                	xchg   %ax,%ax

08048430 <__libc_csu_init>:
 8048430:	55                   	push   %ebp
 8048431:	57                   	push   %edi
 8048432:	31 ff                	xor    %edi,%edi
 8048434:	56                   	push   %esi
 8048435:	53                   	push   %ebx
 8048436:	e8 e5 fe ff ff       	call   8048320 <__x86.get_pc_thunk.bx>
 804843b:	81 c3 c5 1b 00 00    	add    $0x1bc5,%ebx
 8048441:	83 ec 1c             	sub    $0x1c,%esp
 8048444:	8b 6c 24 30          	mov    0x30(%esp),%ebp
 8048448:	8d b3 0c ff ff ff    	lea    -0xf4(%ebx),%esi
 804844e:	e8 41 fe ff ff       	call   8048294 <_init>
 8048453:	8d 83 08 ff ff ff    	lea    -0xf8(%ebx),%eax
 8048459:	29 c6                	sub    %eax,%esi
 804845b:	c1 fe 02             	sar    $0x2,%esi
 804845e:	85 f6                	test   %esi,%esi
 8048460:	74 27                	je     8048489 <__libc_csu_init+0x59>
 8048462:	8d b6 00 00 00 00    	lea    0x0(%esi),%esi
 8048468:	8b 44 24 38          	mov    0x38(%esp),%eax
 804846c:	89 2c 24             	mov    %ebp,(%esp)
 804846f:	89 44 24 08          	mov    %eax,0x8(%esp)
 8048473:	8b 44 24 34          	mov    0x34(%esp),%eax
 8048477:	89 44 24 04          	mov    %eax,0x4(%esp)
 804847b:	ff 94 bb 08 ff ff ff 	call   *-0xf8(%ebx,%edi,4)
 8048482:	83 c7 01             	add    $0x1,%edi
 8048485:	39 f7                	cmp    %esi,%edi
 8048487:	75 df                	jne    8048468 <__libc_csu_init+0x38>
 8048489:	83 c4 1c             	add    $0x1c,%esp
 804848c:	5b                   	pop    %ebx
 804848d:	5e                   	pop    %esi
 804848e:	5f                   	pop    %edi
 804848f:	5d                   	pop    %ebp
 8048490:	c3                   	ret    
 8048491:	eb 0d                	jmp    80484a0 <__libc_csu_fini>
 8048493:	90                   	nop
 8048494:	90                   	nop
 8048495:	90                   	nop
 8048496:	90                   	nop
 8048497:	90                   	nop
 8048498:	90                   	nop
 8048499:	90                   	nop
 804849a:	90                   	nop
 804849b:	90                   	nop
 804849c:	90                   	nop
 804849d:	90                   	nop
 804849e:	90                   	nop
 804849f:	90                   	nop

080484a0 <__libc_csu_fini>:
 80484a0:	f3 c3                	repz ret 

Disassembly of section .fini:

080484a4 <_fini>:
 80484a4:	53                   	push   %ebx
 80484a5:	83 ec 08             	sub    $0x8,%esp
 80484a8:	e8 73 fe ff ff       	call   8048320 <__x86.get_pc_thunk.bx>
 80484ad:	81 c3 53 1b 00 00    	add    $0x1b53,%ebx
 80484b3:	83 c4 08             	add    $0x8,%esp
 80484b6:	5b                   	pop    %ebx
 80484b7:	c3                   	ret    
